(dp0
S'START_EVENT'
p1
ccopy_reg
_reconstructor
p2
(cutil
PitchDurationEvent
p3
c__builtin__
object
p4
Ntp5
Rp6
(dp7
S'i'
p8
I0
sS'duration'
p9
I-1
sS'pitch'
p10
I-1
sbsS'tuples'
p11
c__builtin__
set
p12
((lp13
(I59
I0
tp14
a(I66
I16
tp15
a(I64
I0
tp16
a(I62
I2
tp17
a(I71
I16
tp18
a(I66
I10
tp19
a(I73
I10
tp20
a(I74
I1
tp21
a(I70
I12
tp22
a(I74
I28
tp23
a(I81
I4
tp24
a(I80
I12
tp25
a(I77
I1
tp26
a(I82
I3
tp27
a(I60
I24
tp28
a(I79
I2
tp29
a(I84
I2
tp30
a(I80
I4
tp31
a(I62
I8
tp32
a(I61
I0
tp33
a(I60
I8
tp34
a(I67
I8
tp35
a(I66
I0
tp36
a(I65
I8
tp37
a(I72
I8
tp38
a(I68
I3
tp39
a(I62
I18
tp40
a(I69
I2
tp41
a(I75
I6
tp42
a(I74
I2
tp43
a(I61
I6
tp44
a(I71
I3
tp45
a(I76
I1
tp46
a(I57
I4
tp47
a(I64
I20
tp48
a(I71
I12
tp49
a(I78
I4
tp50
a(I77
I4
tp51
a(I-1
I-1
tp52
a(I83
I4
tp53
a(I82
I4
tp54
a(I55
I2
tp55
a(I79
I1
tp56
a(I60
I2
tp57
a(I59
I10
tp58
a(I84
I12
tp59
a(I65
I6
tp60
a(I64
I10
tp61
a(I66
I5
tp62
a(I63
I0
tp63
a(I62
I24
tp64
a(I69
I8
tp65
a(I68
I0
tp66
a(I67
I24
tp67
a(I74
I8
tp68
a(I73
I0
tp69
a(I72
I24
tp70
a(I79
I16
tp71
a(I71
I6
tp72
a(I69
I18
tp73
a(I76
I6
tp74
a(I74
I18
tp75
a(I81
I2
tp76
a(I78
I1
tp77
a(I60
I20
tp78
a(I59
I4
tp79
a(I83
I3
tp80
a(I65
I28
tp81
a(I64
I4
tp82
a(I79
I4
tp83
a(I84
I4
tp84
a(I65
I1
tp85
a(I62
I6
tp86
a(I86
I3
tp87
a(I68
I10
tp88
a(I67
I2
tp89
a(I66
I6
tp90
a(I72
I2
tp91
a(I72
I32
tp92
a(I73
I3
tp93
a(I70
I0
tp94
a(I69
I24
tp95
a(I75
I0
tp96
a(I74
I24
tp97
a(I73
I16
tp98
a(I80
I0
tp99
a(I76
I11
tp100
a(I66
I24
tp101
a(I57
I2
tp102
a(I79
I14
tp103
a(I78
I2
tp104
a(I77
I10
tp105
a(I59
I3
tp106
a(I64
I1
tp107
a(I62
I12
tp108
a(I60
I4
tp109
a(I67
I12
tp110
a(I71
I24
tp111
a(I65
I12
tp112
a(I72
I12
tp113
a(I62
I3
tp114
a(I67
I1
tp115
a(I66
I32
tp116
a(I69
I14
tp117
a(I67
I18
tp118
a(I74
I14
tp119
a(I72
I18
tp120
a(I-2
I-1
tp121
a(I76
I32
tp122
a(I57
I8
tp123
a(I71
I8
tp124
a(I78
I8
tp125
a(I77
I0
tp126
a(I76
I8
tp127
a(I83
I8
tp128
a(I81
I8
tp129
a(I88
I8
tp130
a(I84
I3
tp131
a(I55
I1
tp132
a(I85
I2
tp133
a(I63
I6
tp134
a(I66
I1
tp135
a(I71
I20
tp136
a(I68
I12
tp137
a(I67
I28
tp138
a(I66
I12
tp139
a(I73
I4
tp140
a(I72
I28
tp141
a(I79
I20
tp142
a(I69
I1
tp143
a(I74
I3
tp144
a(I71
I2
tp145
a(I76
I2
tp146
a(I81
I6
tp147
a(I77
I3
tp148
a(I64
I24
tp149
a(I79
I0
tp150
a(I60
I3
tp151
a(I76
I24
tp152
a(I60
I10
tp153
a(I62
I10
tp154
a(I61
I2
tp155
a(I78
I20
tp156
a(I67
I6
tp157
a(I66
I2
tp158
a(I65
I10
tp159
a(I72
I6
tp160
a(I76
I20
tp161
a(I68
I1
tp162
a(I70
I4
tp163
a(I69
I4
tp164
a(I84
I16
tp165
a(I75
I4
tp166
a(I74
I4
tp167
a(I71
I1
tp168
a(I85
I3
tp169
a(I76
I16
tp170
a(I57
I6
tp171
a(I81
I1
tp172
a(I79
I10
tp173
a(I78
I6
tp174
a(I77
I6
tp175
a(I83
I2
tp176
a(I82
I6
tp177
a(I55
I0
tp178
a(I80
I6
tp179
a(I60
I0
tp180
a(I59
I8
tp181
a(I74
I32
tp182
a(I65
I0
tp183
a(I64
I8
tp184
a(I81
I16
tp185
a(I80
I1
tp186
a(I72
I3
tp187
a(I69
I10
tp188
a(I68
I6
tp189
a(I74
I10
tp190
a(I73
I2
tp191
a(I70
I1
tp192
a(I75
I3
tp193
a(I64
I16
tp194
a(I71
I4
tp195
a(I78
I12
tp196
a(I69
I20
tp197
a(I76
I4
tp198
a(I83
I12
tp199
a(I57
I1
tp200
a(I81
I12
tp201
a(I78
I3
tp202
a(I59
I2
tp203
a(I83
I1
tp204
a(I64
I2
tp205
a(I74
I20
tp206
a(I65
I3
tp207
a(I63
I8
tp208
a(I62
I0
tp209
a(I61
I8
tp210
a(I68
I8
tp211
a(I67
I0
tp212
a(I66
I8
tp213
a(I73
I8
tp214
a(I72
I0
tp215
a(I78
I24
tp216
a(I80
I3
tp217
a(I70
I2
tp218
a(I83
I16
tp219
a(I79
I24
tp220
a(I82
I1
tp221
a(I64
I28
tp222
a(I79
I12
tp223
a(I83
I24
tp224
a(I77
I12
tp225
a(I59
I1
tp226
a(I61
I1
tp227
a(I85
I1
tp228
a(I67
I10
tp229
a(I60
I16
tp230
a(I72
I10
tp231
a(I63
I4
tp232
a(I57
I32
tp233
a(I62
I16
tp234
a(I69
I0
tp235
a(I67
I16
tp236
a(I74
I0
tp237
a(I73
I24
tp238
a(I72
I16
tp239
a(I81
I20
tp240
a(I76
I3
tp241
a(I81
I5
tp242
a(I78
I10
tp243
a(I77
I2
tp244
a(I83
I6
tp245
a(I82
I2
tp246
a(I81
I10
tp247
a(I79
I3
tp248
a(I63
I3
tp249
a(I59
I12
tp250
a(I65
I4
tp251
a(I64
I12
tp252
a(I86
I4
tp253
a(I85
I4
tp254
a(I66
I3
tp255
a(I77
I16
tp256
a(I63
I2
tp257
a(I68
I2
tp258
a(I66
I14
tp259
a(I73
I6
tp260
a(I69
I3
tp261
a(I71
I0
tp262
a(I70
I8
tp263
a(I69
I16
tp264
a(I76
I0
tp265
a(I75
I8
tp266
a(I74
I16
tp267
a(I81
I0
tp268
a(I80
I8
tp269
a(I59
I6
tp270
a(I58
I2
tp271
a(I64
I6
tp272
a(I79
I6
tp273
a(I70
I16
tp274
a(I60
I1
tp275
a(I84
I6
tp276
a(I62
I4
tp277
a(I61
I4
tp278
a(I60
I12
tp279
a(I67
I4
tp280
a(I66
I4
tp281
a(I73
I12
tp282
a(I72
I4
tp283
a(I55
I4
tp284
a(I76
I12
tp285
a(I73
I1
tp286
a(I70
I6
tp287
a(I69
I6
tp288
a(I75
I2
tp289
a(I74
I6
tp290
a(I80
I2
tp291
a(I59
I16
tp292
a(I57
I0
tp293
a(I81
I3
tp294
a(I79
I8
tp295
a(I78
I0
tp296
a(I77
I8
tp297
a(I84
I8
tp298
a(I83
I0
tp299
a(I82
I8
tp300
a(I64
I3
tp301
a(I88
I0
tp302
a(I60
I6
tp303
a(I67
I14
tp304
a(I78
I16
tp305
a(I65
I2
tp306
a(I62
I1
tp307
a(I86
I2
tp308
a(I67
I3
tp309
a(I72
I1
tp310
a(I62
I20
tp311
a(I69
I12
tp312
a(I68
I4
tp313
a(I67
I20
tp314
a(I74
I12
tp315
a(I72
I20
tp316
a(I70
I3
tp317
a(I67
I32
tp318
a(I75
I1
tp319
a(I56
I2
tp320
a(I71
I10
tp321
a(I78
I14
tp322
a(I69
I32
tp323
a(I76
I10
tp324
a(I83
I10
tp325
a(I57
I3
tp326
a(I58
I4
tp327
atp328
Rp329
sS'tup2i'
p330
(dp331
(I66
I16
tp332
I277
s(I64
I0
tp333
I187
s(I66
I10
tp334
I204
s(I70
I12
tp335
I155
s(I81
I4
tp336
I61
s(I80
I12
tp337
I217
s(I82
I3
tp338
I303
s(I84
I2
tp339
I226
s(I62
I8
tp340
I158
s(I61
I0
tp341
I194
s(I60
I8
tp342
I219
s(I72
I8
tp343
I142
s(I62
I18
tp344
I266
s(I75
I6
tp345
I248
s(I74
I2
tp346
I3
s(I76
I1
tp347
I33
s(I64
I20
tp348
I220
s(I79
I20
tp349
I224
s(I78
I4
tp350
I68
s(I77
I4
tp351
I97
s(I-2
I-1
tp352
I1
s(I55
I2
tp353
I253
s(I79
I1
tp354
I83
s(I59
I1
tp355
I191
s(I65
I6
tp356
I141
s(I64
I10
tp357
I246
s(I66
I5
tp358
I195
s(I69
I8
tp359
I65
s(I68
I0
tp360
I232
s(I67
I24
tp361
I229
s(I71
I6
tp362
I63
s(I69
I18
tp363
I306
s(I81
I2
tp364
I10
s(I60
I20
tp365
I312
s(I59
I4
tp366
I88
s(I83
I3
tp367
I92
s(I85
I1
tp368
I192
s(I84
I4
tp369
I196
s(I62
I6
tp370
I111
s(I61
I6
tp371
I259
s(I72
I2
tp372
I15
s(I73
I3
tp373
I54
s(I78
I24
tp374
I291
s(I75
I0
tp375
I235
s(I74
I24
tp376
I153
s(I73
I16
tp377
I302
s(I76
I11
tp378
I90
s(I79
I14
tp379
I269
s(I78
I2
tp380
I12
s(I77
I10
tp381
I258
s(I64
I1
tp382
I23
s(I67
I12
tp383
I129
s(I65
I12
tp384
I171
s(I67
I1
tp385
I35
s(I69
I14
tp386
I268
s(I67
I18
tp387
I305
s(I57
I8
tp388
I287
s(I71
I8
tp389
I87
s(I70
I16
tp390
I294
s(I84
I16
tp391
I298
s(I83
I8
tp392
I169
s(I81
I8
tp393
I36
s(I84
I3
tp394
I93
s(I85
I2
tp395
I69
s(I73
I4
tp396
I45
s(I72
I28
tp397
I199
s(I74
I3
tp398
I39
s(I76
I2
tp399
I2
s(I77
I3
tp400
I99
s(I64
I24
tp401
I273
s(I79
I0
tp402
I145
s(I77
I16
tp403
I167
s(I76
I24
tp404
I289
s(I67
I6
tp405
I56
s(I66
I2
tp406
I5
s(I65
I10
tp407
I225
s(I68
I1
tp408
I21
s(I70
I4
tp409
I137
s(I69
I4
tp410
I44
s(I80
I4
tp411
I96
s(I57
I6
tp412
I263
s(I81
I1
tp413
I85
s(I83
I2
tp414
I58
s(I82
I6
tp415
I140
s(I60
I0
tp416
I230
s(I59
I8
tp417
I222
s(I74
I32
tp418
I207
s(I85
I3
tp419
I239
s(I63
I6
tp420
I118
s(I74
I10
tp421
I106
s(I73
I2
tp422
I4
s(I75
I3
tp423
I51
s(I78
I12
tp424
I216
s(I76
I4
tp425
I19
s(I74
I20
tp426
I221
s(I78
I3
tp427
I48
s(I64
I2
tp428
I30
s(I65
I3
tp429
I76
s(I68
I8
tp430
I265
s(I67
I0
tp431
I122
s(I66
I8
tp432
I157
s(I70
I2
tp433
I117
s(I82
I1
tp434
I241
s(I71
I20
tp435
I279
s(I84
I12
tp436
I286
s(I86
I4
tp437
I70
s(I60
I10
tp438
I283
s(I72
I10
tp439
I102
s(I80
I3
tp440
I237
s(I74
I0
tp441
I186
s(I73
I24
tp442
I164
s(I72
I16
tp443
I270
s(I76
I3
tp444
I42
s(I78
I10
tp445
I247
s(I77
I2
tp446
I105
s(I80
I6
tp447
I147
s(I79
I3
tp448
I82
s(I65
I4
tp449
I75
s(I64
I12
tp450
I132
s(I66
I3
tp451
I46
s(I68
I2
tp452
I24
s(I66
I14
tp453
I278
s(I69
I3
tp454
I43
s(I71
I0
tp455
I184
s(I70
I8
tp456
I156
s(I69
I16
tp457
I165
s(I83
I16
tp458
I300
s(I81
I0
tp459
I144
s(I80
I8
tp460
I179
s(I59
I6
tp461
I301
s(I58
I2
tp462
I257
s(I60
I1
tp463
I73
s(I84
I6
tp464
I201
s(I62
I4
tp465
I71
s(I61
I4
tp466
I133
s(I60
I12
tp467
I244
s(I73
I12
tp468
I67
s(I72
I4
tp469
I77
s(I76
I12
tp470
I130
s(I73
I1
tp471
I26
s(I75
I2
tp472
I25
s(I74
I6
tp473
I18
s(I64
I16
tp474
I214
s(I79
I8
tp475
I112
s(I78
I0
tp476
I159
s(I77
I8
tp477
I151
s(I76
I16
tp478
I210
s(I64
I3
tp479
I52
s(I88
I0
tp480
I236
s(I67
I14
tp481
I307
s(I65
I2
tp482
I110
s(I67
I3
tp483
I40
s(I69
I12
tp484
I128
s(I68
I4
tp485
I150
s(I67
I20
tp486
I223
s(I70
I3
tp487
I50
s(I67
I32
tp488
I274
s(I56
I2
tp489
I261
s(I71
I10
tp490
I114
s(I83
I10
tp491
I256
s(I57
I3
tp492
I74
s(I60
I24
tp493
I311
s(I59
I0
tp494
I193
s(I62
I2
tp495
I55
s(I73
I10
tp496
I254
s(I74
I1
tp497
I34
s(I78
I20
tp498
I290
s(I74
I28
tp499
I295
s(I77
I1
tp500
I98
s(I79
I2
tp501
I11
s(I62
I16
tp502
I175
s(I71
I1
tp503
I27
s(I67
I8
tp504
I101
s(I66
I0
tp505
I120
s(I65
I8
tp506
I203
s(I68
I3
tp507
I53
s(I69
I2
tp508
I6
s(I71
I3
tp509
I37
s(I57
I4
tp510
I177
s(I71
I12
tp511
I172
s(I83
I4
tp512
I94
s(I82
I4
tp513
I138
s(I81
I20
tp514
I310
s(I60
I2
tp515
I124
s(I59
I10
tp516
I262
s(I63
I0
tp517
I249
s(I62
I24
tp518
I152
s(I74
I8
tp519
I62
s(I73
I0
tp520
I185
s(I72
I24
tp521
I200
s(I76
I6
tp522
I66
s(I74
I18
tp523
I275
s(I78
I1
tp524
I32
s(I65
I28
tp525
I170
s(I64
I4
tp526
I20
s(I79
I4
tp527
I91
s(I65
I1
tp528
I78
s(I68
I10
tp529
I260
s(I67
I2
tp530
I8
s(I66
I6
tp531
I131
s(I70
I0
tp532
I227
s(I69
I24
tp533
I178
s(I83
I24
tp534
I276
s(I66
I32
tp535
I281
s(I80
I0
tp536
I238
s(I57
I2
tp537
I197
s(I59
I3
tp538
I304
s(I62
I12
tp539
I127
s(I60
I4
tp540
I80
s(I72
I12
tp541
I103
s(I62
I3
tp542
I72
s(I74
I14
tp543
I308
s(I72
I18
tp544
I267
s(I-1
I-1
tp545
I0
s(I79
I16
tp546
I166
s(I78
I8
tp547
I95
s(I77
I0
tp548
I213
s(I76
I8
tp549
I31
s(I88
I8
tp550
I292
s(I55
I1
tp551
I190
s(I72
I3
tp552
I49
s(I66
I1
tp553
I22
s(I68
I12
tp554
I149
s(I67
I28
tp555
I154
s(I66
I12
tp556
I161
s(I69
I1
tp557
I28
s(I71
I2
tp558
I7
s(I81
I6
tp559
I59
s(I60
I16
tp560
I208
s(I72
I32
tp561
I309
s(I71
I24
tp562
I206
s(I60
I3
tp563
I79
s(I62
I10
tp564
I136
s(I61
I2
tp565
I125
s(I72
I6
tp566
I113
s(I86
I3
tp567
I252
s(I75
I4
tp568
I104
s(I74
I4
tp569
I13
s(I79
I10
tp570
I134
s(I78
I6
tp571
I17
s(I77
I6
tp572
I16
s(I55
I0
tp573
I234
s(I66
I24
tp574
I272
s(I65
I0
tp575
I231
s(I64
I8
tp576
I89
s(I71
I4
tp577
I9
s(I69
I10
tp578
I116
s(I68
I6
tp579
I255
s(I70
I1
tp580
I81
s(I80
I1
tp581
I60
s(I69
I20
tp582
I163
s(I83
I12
tp583
I174
s(I57
I1
tp584
I189
s(I81
I12
tp585
I148
s(I59
I2
tp586
I143
s(I83
I1
tp587
I86
s(I63
I8
tp588
I285
s(I62
I0
tp589
I188
s(I61
I8
tp590
I176
s(I76
I32
tp591
I284
s(I73
I8
tp592
I162
s(I72
I0
tp593
I212
s(I64
I28
tp594
I313
s(I79
I12
tp595
I64
s(I77
I12
tp596
I245
s(I76
I20
tp597
I299
s(I67
I10
tp598
I107
s(I72
I1
tp599
I38
s(I57
I32
tp600
I280
s(I69
I0
tp601
I121
s(I67
I16
tp602
I168
s(I81
I5
tp603
I242
s(I83
I6
tp604
I135
s(I82
I2
tp605
I139
s(I81
I10
tp606
I251
s(I63
I3
tp607
I240
s(I59
I12
tp608
I296
s(I61
I1
tp609
I181
s(I85
I4
tp610
I182
s(I63
I2
tp611
I119
s(I73
I6
tp612
I108
s(I79
I24
tp613
I202
s(I78
I16
tp614
I288
s(I76
I0
tp615
I160
s(I75
I8
tp616
I264
s(I74
I16
tp617
I205
s(I64
I6
tp618
I115
s(I79
I6
tp619
I14
s(I67
I4
tp620
I41
s(I66
I4
tp621
I100
s(I55
I4
tp622
I297
s(I70
I6
tp623
I146
s(I69
I6
tp624
I109
s(I80
I2
tp625
I57
s(I59
I16
tp626
I271
s(I57
I0
tp627
I233
s(I81
I3
tp628
I84
s(I71
I16
tp629
I215
s(I69
I32
tp630
I180
s(I84
I8
tp631
I173
s(I83
I0
tp632
I211
s(I82
I8
tp633
I198
s(I81
I16
tp634
I218
s(I60
I6
tp635
I228
s(I62
I1
tp636
I47
s(I86
I2
tp637
I183
s(I63
I4
tp638
I126
s(I62
I20
tp639
I282
s(I74
I12
tp640
I123
s(I72
I20
tp641
I209
s(I75
I1
tp642
I29
s(I78
I14
tp643
I293
s(I76
I10
tp644
I250
s(I58
I4
tp645
I243
ssS'END_EVENT'
p646
g2
(g3
g4
Ntp647
Rp648
(dp649
g8
I1
sg9
I-1
sg10
I-2
sbsS'tup2e'
p650
(dp651
(I66
I16
tp652
g2
(g3
g4
Ntp653
Rp654
(dp655
g8
I277
sg9
I16
sg10
I66
sbs(I64
I0
tp656
g2
(g3
g4
Ntp657
Rp658
(dp659
g8
I187
sg9
I0
sg10
I64
sbs(I66
I10
tp660
g2
(g3
g4
Ntp661
Rp662
(dp663
g8
I204
sg9
I10
sg10
I66
sbs(I70
I12
tp664
g2
(g3
g4
Ntp665
Rp666
(dp667
g8
I155
sg9
I12
sg10
I70
sbs(I81
I4
tp668
g2
(g3
g4
Ntp669
Rp670
(dp671
g8
I61
sg9
I4
sg10
I81
sbs(I80
I12
tp672
g2
(g3
g4
Ntp673
Rp674
(dp675
g8
I217
sg9
I12
sg10
I80
sbs(I82
I3
tp676
g2
(g3
g4
Ntp677
Rp678
(dp679
g8
I303
sg9
I3
sg10
I82
sbs(I84
I2
tp680
g2
(g3
g4
Ntp681
Rp682
(dp683
g8
I226
sg9
I2
sg10
I84
sbs(I62
I8
tp684
g2
(g3
g4
Ntp685
Rp686
(dp687
g8
I158
sg9
I8
sg10
I62
sbs(I61
I0
tp688
g2
(g3
g4
Ntp689
Rp690
(dp691
g8
I194
sg9
I0
sg10
I61
sbs(I60
I8
tp692
g2
(g3
g4
Ntp693
Rp694
(dp695
g8
I219
sg9
I8
sg10
I60
sbs(I72
I8
tp696
g2
(g3
g4
Ntp697
Rp698
(dp699
g8
I142
sg9
I8
sg10
I72
sbs(I62
I18
tp700
g2
(g3
g4
Ntp701
Rp702
(dp703
g8
I266
sg9
I18
sg10
I62
sbs(I75
I6
tp704
g2
(g3
g4
Ntp705
Rp706
(dp707
g8
I248
sg9
I6
sg10
I75
sbs(I74
I2
tp708
g2
(g3
g4
Ntp709
Rp710
(dp711
g8
I3
sg9
I2
sg10
I74
sbs(I76
I1
tp712
g2
(g3
g4
Ntp713
Rp714
(dp715
g8
I33
sg9
I1
sg10
I76
sbs(I64
I20
tp716
g2
(g3
g4
Ntp717
Rp718
(dp719
g8
I220
sg9
I20
sg10
I64
sbs(I79
I20
tp720
g2
(g3
g4
Ntp721
Rp722
(dp723
g8
I224
sg9
I20
sg10
I79
sbs(I78
I4
tp724
g2
(g3
g4
Ntp725
Rp726
(dp727
g8
I68
sg9
I4
sg10
I78
sbs(I77
I4
tp728
g2
(g3
g4
Ntp729
Rp730
(dp731
g8
I97
sg9
I4
sg10
I77
sbs(I-2
I-1
tp732
g648
s(I55
I2
tp733
g2
(g3
g4
Ntp734
Rp735
(dp736
g8
I253
sg9
I2
sg10
I55
sbs(I79
I1
tp737
g2
(g3
g4
Ntp738
Rp739
(dp740
g8
I83
sg9
I1
sg10
I79
sbs(I59
I1
tp741
g2
(g3
g4
Ntp742
Rp743
(dp744
g8
I191
sg9
I1
sg10
I59
sbs(I65
I6
tp745
g2
(g3
g4
Ntp746
Rp747
(dp748
g8
I141
sg9
I6
sg10
I65
sbs(I64
I10
tp749
g2
(g3
g4
Ntp750
Rp751
(dp752
g8
I246
sg9
I10
sg10
I64
sbs(I66
I5
tp753
g2
(g3
g4
Ntp754
Rp755
(dp756
g8
I195
sg9
I5
sg10
I66
sbs(I69
I8
tp757
g2
(g3
g4
Ntp758
Rp759
(dp760
g8
I65
sg9
I8
sg10
I69
sbs(I68
I0
tp761
g2
(g3
g4
Ntp762
Rp763
(dp764
g8
I232
sg9
I0
sg10
I68
sbs(I67
I24
tp765
g2
(g3
g4
Ntp766
Rp767
(dp768
g8
I229
sg9
I24
sg10
I67
sbs(I71
I6
tp769
g2
(g3
g4
Ntp770
Rp771
(dp772
g8
I63
sg9
I6
sg10
I71
sbs(I69
I18
tp773
g2
(g3
g4
Ntp774
Rp775
(dp776
g8
I306
sg9
I18
sg10
I69
sbs(I81
I2
tp777
g2
(g3
g4
Ntp778
Rp779
(dp780
g8
I10
sg9
I2
sg10
I81
sbs(I60
I20
tp781
g2
(g3
g4
Ntp782
Rp783
(dp784
g8
I312
sg9
I20
sg10
I60
sbs(I59
I4
tp785
g2
(g3
g4
Ntp786
Rp787
(dp788
g8
I88
sg9
I4
sg10
I59
sbs(I83
I3
tp789
g2
(g3
g4
Ntp790
Rp791
(dp792
g8
I92
sg9
I3
sg10
I83
sbs(I85
I1
tp793
g2
(g3
g4
Ntp794
Rp795
(dp796
g8
I192
sg9
I1
sg10
I85
sbs(I84
I4
tp797
g2
(g3
g4
Ntp798
Rp799
(dp800
g8
I196
sg9
I4
sg10
I84
sbs(I62
I6
tp801
g2
(g3
g4
Ntp802
Rp803
(dp804
g8
I111
sg9
I6
sg10
I62
sbs(I61
I6
tp805
g2
(g3
g4
Ntp806
Rp807
(dp808
g8
I259
sg9
I6
sg10
I61
sbs(I72
I2
tp809
g2
(g3
g4
Ntp810
Rp811
(dp812
g8
I15
sg9
I2
sg10
I72
sbs(I73
I3
tp813
g2
(g3
g4
Ntp814
Rp815
(dp816
g8
I54
sg9
I3
sg10
I73
sbs(I78
I24
tp817
g2
(g3
g4
Ntp818
Rp819
(dp820
g8
I291
sg9
I24
sg10
I78
sbs(I75
I0
tp821
g2
(g3
g4
Ntp822
Rp823
(dp824
g8
I235
sg9
I0
sg10
I75
sbs(I74
I24
tp825
g2
(g3
g4
Ntp826
Rp827
(dp828
g8
I153
sg9
I24
sg10
I74
sbs(I73
I16
tp829
g2
(g3
g4
Ntp830
Rp831
(dp832
g8
I302
sg9
I16
sg10
I73
sbs(I76
I11
tp833
g2
(g3
g4
Ntp834
Rp835
(dp836
g8
I90
sg9
I11
sg10
I76
sbs(I79
I14
tp837
g2
(g3
g4
Ntp838
Rp839
(dp840
g8
I269
sg9
I14
sg10
I79
sbs(I78
I2
tp841
g2
(g3
g4
Ntp842
Rp843
(dp844
g8
I12
sg9
I2
sg10
I78
sbs(I77
I10
tp845
g2
(g3
g4
Ntp846
Rp847
(dp848
g8
I258
sg9
I10
sg10
I77
sbs(I64
I1
tp849
g2
(g3
g4
Ntp850
Rp851
(dp852
g8
I23
sg9
I1
sg10
I64
sbs(I67
I12
tp853
g2
(g3
g4
Ntp854
Rp855
(dp856
g8
I129
sg9
I12
sg10
I67
sbs(I65
I12
tp857
g2
(g3
g4
Ntp858
Rp859
(dp860
g8
I171
sg9
I12
sg10
I65
sbs(I67
I1
tp861
g2
(g3
g4
Ntp862
Rp863
(dp864
g8
I35
sg9
I1
sg10
I67
sbs(I69
I14
tp865
g2
(g3
g4
Ntp866
Rp867
(dp868
g8
I268
sg9
I14
sg10
I69
sbs(I67
I18
tp869
g2
(g3
g4
Ntp870
Rp871
(dp872
g8
I305
sg9
I18
sg10
I67
sbs(I57
I8
tp873
g2
(g3
g4
Ntp874
Rp875
(dp876
g8
I287
sg9
I8
sg10
I57
sbs(I71
I8
tp877
g2
(g3
g4
Ntp878
Rp879
(dp880
g8
I87
sg9
I8
sg10
I71
sbs(I70
I16
tp881
g2
(g3
g4
Ntp882
Rp883
(dp884
g8
I294
sg9
I16
sg10
I70
sbs(I84
I16
tp885
g2
(g3
g4
Ntp886
Rp887
(dp888
g8
I298
sg9
I16
sg10
I84
sbs(I83
I8
tp889
g2
(g3
g4
Ntp890
Rp891
(dp892
g8
I169
sg9
I8
sg10
I83
sbs(I81
I8
tp893
g2
(g3
g4
Ntp894
Rp895
(dp896
g8
I36
sg9
I8
sg10
I81
sbs(I84
I3
tp897
g2
(g3
g4
Ntp898
Rp899
(dp900
g8
I93
sg9
I3
sg10
I84
sbs(I85
I2
tp901
g2
(g3
g4
Ntp902
Rp903
(dp904
g8
I69
sg9
I2
sg10
I85
sbs(I73
I4
tp905
g2
(g3
g4
Ntp906
Rp907
(dp908
g8
I45
sg9
I4
sg10
I73
sbs(I72
I28
tp909
g2
(g3
g4
Ntp910
Rp911
(dp912
g8
I199
sg9
I28
sg10
I72
sbs(I74
I3
tp913
g2
(g3
g4
Ntp914
Rp915
(dp916
g8
I39
sg9
I3
sg10
I74
sbs(I76
I2
tp917
g2
(g3
g4
Ntp918
Rp919
(dp920
g8
I2
sg9
I2
sg10
I76
sbs(I77
I3
tp921
g2
(g3
g4
Ntp922
Rp923
(dp924
g8
I99
sg9
I3
sg10
I77
sbs(I64
I24
tp925
g2
(g3
g4
Ntp926
Rp927
(dp928
g8
I273
sg9
I24
sg10
I64
sbs(I79
I0
tp929
g2
(g3
g4
Ntp930
Rp931
(dp932
g8
I145
sg9
I0
sg10
I79
sbs(I77
I16
tp933
g2
(g3
g4
Ntp934
Rp935
(dp936
g8
I167
sg9
I16
sg10
I77
sbs(I76
I24
tp937
g2
(g3
g4
Ntp938
Rp939
(dp940
g8
I289
sg9
I24
sg10
I76
sbs(I67
I6
tp941
g2
(g3
g4
Ntp942
Rp943
(dp944
g8
I56
sg9
I6
sg10
I67
sbs(I66
I2
tp945
g2
(g3
g4
Ntp946
Rp947
(dp948
g8
I5
sg9
I2
sg10
I66
sbs(I65
I10
tp949
g2
(g3
g4
Ntp950
Rp951
(dp952
g8
I225
sg9
I10
sg10
I65
sbs(I68
I1
tp953
g2
(g3
g4
Ntp954
Rp955
(dp956
g8
I21
sg9
I1
sg10
I68
sbs(I70
I4
tp957
g2
(g3
g4
Ntp958
Rp959
(dp960
g8
I137
sg9
I4
sg10
I70
sbs(I69
I4
tp961
g2
(g3
g4
Ntp962
Rp963
(dp964
g8
I44
sg9
I4
sg10
I69
sbs(I80
I4
tp965
g2
(g3
g4
Ntp966
Rp967
(dp968
g8
I96
sg9
I4
sg10
I80
sbs(I57
I6
tp969
g2
(g3
g4
Ntp970
Rp971
(dp972
g8
I263
sg9
I6
sg10
I57
sbs(I81
I1
tp973
g2
(g3
g4
Ntp974
Rp975
(dp976
g8
I85
sg9
I1
sg10
I81
sbs(I83
I2
tp977
g2
(g3
g4
Ntp978
Rp979
(dp980
g8
I58
sg9
I2
sg10
I83
sbs(I82
I6
tp981
g2
(g3
g4
Ntp982
Rp983
(dp984
g8
I140
sg9
I6
sg10
I82
sbs(I60
I0
tp985
g2
(g3
g4
Ntp986
Rp987
(dp988
g8
I230
sg9
I0
sg10
I60
sbs(I59
I8
tp989
g2
(g3
g4
Ntp990
Rp991
(dp992
g8
I222
sg9
I8
sg10
I59
sbs(I74
I32
tp993
g2
(g3
g4
Ntp994
Rp995
(dp996
g8
I207
sg9
I32
sg10
I74
sbs(I85
I3
tp997
g2
(g3
g4
Ntp998
Rp999
(dp1000
g8
I239
sg9
I3
sg10
I85
sbs(I63
I6
tp1001
g2
(g3
g4
Ntp1002
Rp1003
(dp1004
g8
I118
sg9
I6
sg10
I63
sbs(I74
I10
tp1005
g2
(g3
g4
Ntp1006
Rp1007
(dp1008
g8
I106
sg9
I10
sg10
I74
sbs(I73
I2
tp1009
g2
(g3
g4
Ntp1010
Rp1011
(dp1012
g8
I4
sg9
I2
sg10
I73
sbs(I75
I3
tp1013
g2
(g3
g4
Ntp1014
Rp1015
(dp1016
g8
I51
sg9
I3
sg10
I75
sbs(I78
I12
tp1017
g2
(g3
g4
Ntp1018
Rp1019
(dp1020
g8
I216
sg9
I12
sg10
I78
sbs(I76
I4
tp1021
g2
(g3
g4
Ntp1022
Rp1023
(dp1024
g8
I19
sg9
I4
sg10
I76
sbs(I74
I20
tp1025
g2
(g3
g4
Ntp1026
Rp1027
(dp1028
g8
I221
sg9
I20
sg10
I74
sbs(I78
I3
tp1029
g2
(g3
g4
Ntp1030
Rp1031
(dp1032
g8
I48
sg9
I3
sg10
I78
sbs(I64
I2
tp1033
g2
(g3
g4
Ntp1034
Rp1035
(dp1036
g8
I30
sg9
I2
sg10
I64
sbs(I65
I3
tp1037
g2
(g3
g4
Ntp1038
Rp1039
(dp1040
g8
I76
sg9
I3
sg10
I65
sbs(I68
I8
tp1041
g2
(g3
g4
Ntp1042
Rp1043
(dp1044
g8
I265
sg9
I8
sg10
I68
sbs(I67
I0
tp1045
g2
(g3
g4
Ntp1046
Rp1047
(dp1048
g8
I122
sg9
I0
sg10
I67
sbs(I66
I8
tp1049
g2
(g3
g4
Ntp1050
Rp1051
(dp1052
g8
I157
sg9
I8
sg10
I66
sbs(I70
I2
tp1053
g2
(g3
g4
Ntp1054
Rp1055
(dp1056
g8
I117
sg9
I2
sg10
I70
sbs(I82
I1
tp1057
g2
(g3
g4
Ntp1058
Rp1059
(dp1060
g8
I241
sg9
I1
sg10
I82
sbs(I71
I20
tp1061
g2
(g3
g4
Ntp1062
Rp1063
(dp1064
g8
I279
sg9
I20
sg10
I71
sbs(I84
I12
tp1065
g2
(g3
g4
Ntp1066
Rp1067
(dp1068
g8
I286
sg9
I12
sg10
I84
sbs(I86
I4
tp1069
g2
(g3
g4
Ntp1070
Rp1071
(dp1072
g8
I70
sg9
I4
sg10
I86
sbs(I60
I10
tp1073
g2
(g3
g4
Ntp1074
Rp1075
(dp1076
g8
I283
sg9
I10
sg10
I60
sbs(I72
I10
tp1077
g2
(g3
g4
Ntp1078
Rp1079
(dp1080
g8
I102
sg9
I10
sg10
I72
sbs(I80
I3
tp1081
g2
(g3
g4
Ntp1082
Rp1083
(dp1084
g8
I237
sg9
I3
sg10
I80
sbs(I74
I0
tp1085
g2
(g3
g4
Ntp1086
Rp1087
(dp1088
g8
I186
sg9
I0
sg10
I74
sbs(I73
I24
tp1089
g2
(g3
g4
Ntp1090
Rp1091
(dp1092
g8
I164
sg9
I24
sg10
I73
sbs(I72
I16
tp1093
g2
(g3
g4
Ntp1094
Rp1095
(dp1096
g8
I270
sg9
I16
sg10
I72
sbs(I76
I3
tp1097
g2
(g3
g4
Ntp1098
Rp1099
(dp1100
g8
I42
sg9
I3
sg10
I76
sbs(I78
I10
tp1101
g2
(g3
g4
Ntp1102
Rp1103
(dp1104
g8
I247
sg9
I10
sg10
I78
sbs(I77
I2
tp1105
g2
(g3
g4
Ntp1106
Rp1107
(dp1108
g8
I105
sg9
I2
sg10
I77
sbs(I80
I6
tp1109
g2
(g3
g4
Ntp1110
Rp1111
(dp1112
g8
I147
sg9
I6
sg10
I80
sbs(I79
I3
tp1113
g2
(g3
g4
Ntp1114
Rp1115
(dp1116
g8
I82
sg9
I3
sg10
I79
sbs(I65
I4
tp1117
g2
(g3
g4
Ntp1118
Rp1119
(dp1120
g8
I75
sg9
I4
sg10
I65
sbs(I64
I12
tp1121
g2
(g3
g4
Ntp1122
Rp1123
(dp1124
g8
I132
sg9
I12
sg10
I64
sbs(I66
I3
tp1125
g2
(g3
g4
Ntp1126
Rp1127
(dp1128
g8
I46
sg9
I3
sg10
I66
sbs(I68
I2
tp1129
g2
(g3
g4
Ntp1130
Rp1131
(dp1132
g8
I24
sg9
I2
sg10
I68
sbs(I66
I14
tp1133
g2
(g3
g4
Ntp1134
Rp1135
(dp1136
g8
I278
sg9
I14
sg10
I66
sbs(I69
I3
tp1137
g2
(g3
g4
Ntp1138
Rp1139
(dp1140
g8
I43
sg9
I3
sg10
I69
sbs(I71
I0
tp1141
g2
(g3
g4
Ntp1142
Rp1143
(dp1144
g8
I184
sg9
I0
sg10
I71
sbs(I70
I8
tp1145
g2
(g3
g4
Ntp1146
Rp1147
(dp1148
g8
I156
sg9
I8
sg10
I70
sbs(I69
I16
tp1149
g2
(g3
g4
Ntp1150
Rp1151
(dp1152
g8
I165
sg9
I16
sg10
I69
sbs(I83
I16
tp1153
g2
(g3
g4
Ntp1154
Rp1155
(dp1156
g8
I300
sg9
I16
sg10
I83
sbs(I81
I0
tp1157
g2
(g3
g4
Ntp1158
Rp1159
(dp1160
g8
I144
sg9
I0
sg10
I81
sbs(I80
I8
tp1161
g2
(g3
g4
Ntp1162
Rp1163
(dp1164
g8
I179
sg9
I8
sg10
I80
sbs(I59
I6
tp1165
g2
(g3
g4
Ntp1166
Rp1167
(dp1168
g8
I301
sg9
I6
sg10
I59
sbs(I58
I2
tp1169
g2
(g3
g4
Ntp1170
Rp1171
(dp1172
g8
I257
sg9
I2
sg10
I58
sbs(I60
I1
tp1173
g2
(g3
g4
Ntp1174
Rp1175
(dp1176
g8
I73
sg9
I1
sg10
I60
sbs(I84
I6
tp1177
g2
(g3
g4
Ntp1178
Rp1179
(dp1180
g8
I201
sg9
I6
sg10
I84
sbs(I62
I4
tp1181
g2
(g3
g4
Ntp1182
Rp1183
(dp1184
g8
I71
sg9
I4
sg10
I62
sbs(I61
I4
tp1185
g2
(g3
g4
Ntp1186
Rp1187
(dp1188
g8
I133
sg9
I4
sg10
I61
sbs(I60
I12
tp1189
g2
(g3
g4
Ntp1190
Rp1191
(dp1192
g8
I244
sg9
I12
sg10
I60
sbs(I73
I12
tp1193
g2
(g3
g4
Ntp1194
Rp1195
(dp1196
g8
I67
sg9
I12
sg10
I73
sbs(I72
I4
tp1197
g2
(g3
g4
Ntp1198
Rp1199
(dp1200
g8
I77
sg9
I4
sg10
I72
sbs(I76
I12
tp1201
g2
(g3
g4
Ntp1202
Rp1203
(dp1204
g8
I130
sg9
I12
sg10
I76
sbs(I73
I1
tp1205
g2
(g3
g4
Ntp1206
Rp1207
(dp1208
g8
I26
sg9
I1
sg10
I73
sbs(I75
I2
tp1209
g2
(g3
g4
Ntp1210
Rp1211
(dp1212
g8
I25
sg9
I2
sg10
I75
sbs(I74
I6
tp1213
g2
(g3
g4
Ntp1214
Rp1215
(dp1216
g8
I18
sg9
I6
sg10
I74
sbs(I64
I16
tp1217
g2
(g3
g4
Ntp1218
Rp1219
(dp1220
g8
I214
sg9
I16
sg10
I64
sbs(I79
I8
tp1221
g2
(g3
g4
Ntp1222
Rp1223
(dp1224
g8
I112
sg9
I8
sg10
I79
sbs(I78
I0
tp1225
g2
(g3
g4
Ntp1226
Rp1227
(dp1228
g8
I159
sg9
I0
sg10
I78
sbs(I77
I8
tp1229
g2
(g3
g4
Ntp1230
Rp1231
(dp1232
g8
I151
sg9
I8
sg10
I77
sbs(I76
I16
tp1233
g2
(g3
g4
Ntp1234
Rp1235
(dp1236
g8
I210
sg9
I16
sg10
I76
sbs(I64
I3
tp1237
g2
(g3
g4
Ntp1238
Rp1239
(dp1240
g8
I52
sg9
I3
sg10
I64
sbs(I88
I0
tp1241
g2
(g3
g4
Ntp1242
Rp1243
(dp1244
g8
I236
sg9
I0
sg10
I88
sbs(I67
I14
tp1245
g2
(g3
g4
Ntp1246
Rp1247
(dp1248
g8
I307
sg9
I14
sg10
I67
sbs(I65
I2
tp1249
g2
(g3
g4
Ntp1250
Rp1251
(dp1252
g8
I110
sg9
I2
sg10
I65
sbs(I67
I3
tp1253
g2
(g3
g4
Ntp1254
Rp1255
(dp1256
g8
I40
sg9
I3
sg10
I67
sbs(I69
I12
tp1257
g2
(g3
g4
Ntp1258
Rp1259
(dp1260
g8
I128
sg9
I12
sg10
I69
sbs(I68
I4
tp1261
g2
(g3
g4
Ntp1262
Rp1263
(dp1264
g8
I150
sg9
I4
sg10
I68
sbs(I67
I20
tp1265
g2
(g3
g4
Ntp1266
Rp1267
(dp1268
g8
I223
sg9
I20
sg10
I67
sbs(I70
I3
tp1269
g2
(g3
g4
Ntp1270
Rp1271
(dp1272
g8
I50
sg9
I3
sg10
I70
sbs(I67
I32
tp1273
g2
(g3
g4
Ntp1274
Rp1275
(dp1276
g8
I274
sg9
I32
sg10
I67
sbs(I56
I2
tp1277
g2
(g3
g4
Ntp1278
Rp1279
(dp1280
g8
I261
sg9
I2
sg10
I56
sbs(I71
I10
tp1281
g2
(g3
g4
Ntp1282
Rp1283
(dp1284
g8
I114
sg9
I10
sg10
I71
sbs(I83
I10
tp1285
g2
(g3
g4
Ntp1286
Rp1287
(dp1288
g8
I256
sg9
I10
sg10
I83
sbs(I57
I3
tp1289
g2
(g3
g4
Ntp1290
Rp1291
(dp1292
g8
I74
sg9
I3
sg10
I57
sbs(I60
I24
tp1293
g2
(g3
g4
Ntp1294
Rp1295
(dp1296
g8
I311
sg9
I24
sg10
I60
sbs(I59
I0
tp1297
g2
(g3
g4
Ntp1298
Rp1299
(dp1300
g8
I193
sg9
I0
sg10
I59
sbs(I62
I2
tp1301
g2
(g3
g4
Ntp1302
Rp1303
(dp1304
g8
I55
sg9
I2
sg10
I62
sbs(I73
I10
tp1305
g2
(g3
g4
Ntp1306
Rp1307
(dp1308
g8
I254
sg9
I10
sg10
I73
sbs(I74
I1
tp1309
g2
(g3
g4
Ntp1310
Rp1311
(dp1312
g8
I34
sg9
I1
sg10
I74
sbs(I78
I20
tp1313
g2
(g3
g4
Ntp1314
Rp1315
(dp1316
g8
I290
sg9
I20
sg10
I78
sbs(I74
I28
tp1317
g2
(g3
g4
Ntp1318
Rp1319
(dp1320
g8
I295
sg9
I28
sg10
I74
sbs(I77
I1
tp1321
g2
(g3
g4
Ntp1322
Rp1323
(dp1324
g8
I98
sg9
I1
sg10
I77
sbs(I79
I2
tp1325
g2
(g3
g4
Ntp1326
Rp1327
(dp1328
g8
I11
sg9
I2
sg10
I79
sbs(I62
I16
tp1329
g2
(g3
g4
Ntp1330
Rp1331
(dp1332
g8
I175
sg9
I16
sg10
I62
sbs(I71
I1
tp1333
g2
(g3
g4
Ntp1334
Rp1335
(dp1336
g8
I27
sg9
I1
sg10
I71
sbs(I67
I8
tp1337
g2
(g3
g4
Ntp1338
Rp1339
(dp1340
g8
I101
sg9
I8
sg10
I67
sbs(I66
I0
tp1341
g2
(g3
g4
Ntp1342
Rp1343
(dp1344
g8
I120
sg9
I0
sg10
I66
sbs(I65
I8
tp1345
g2
(g3
g4
Ntp1346
Rp1347
(dp1348
g8
I203
sg9
I8
sg10
I65
sbs(I68
I3
tp1349
g2
(g3
g4
Ntp1350
Rp1351
(dp1352
g8
I53
sg9
I3
sg10
I68
sbs(I69
I2
tp1353
g2
(g3
g4
Ntp1354
Rp1355
(dp1356
g8
I6
sg9
I2
sg10
I69
sbs(I71
I3
tp1357
g2
(g3
g4
Ntp1358
Rp1359
(dp1360
g8
I37
sg9
I3
sg10
I71
sbs(I57
I4
tp1361
g2
(g3
g4
Ntp1362
Rp1363
(dp1364
g8
I177
sg9
I4
sg10
I57
sbs(I71
I12
tp1365
g2
(g3
g4
Ntp1366
Rp1367
(dp1368
g8
I172
sg9
I12
sg10
I71
sbs(I83
I4
tp1369
g2
(g3
g4
Ntp1370
Rp1371
(dp1372
g8
I94
sg9
I4
sg10
I83
sbs(I82
I4
tp1373
g2
(g3
g4
Ntp1374
Rp1375
(dp1376
g8
I138
sg9
I4
sg10
I82
sbs(I81
I20
tp1377
g2
(g3
g4
Ntp1378
Rp1379
(dp1380
g8
I310
sg9
I20
sg10
I81
sbs(I60
I2
tp1381
g2
(g3
g4
Ntp1382
Rp1383
(dp1384
g8
I124
sg9
I2
sg10
I60
sbs(I59
I10
tp1385
g2
(g3
g4
Ntp1386
Rp1387
(dp1388
g8
I262
sg9
I10
sg10
I59
sbs(I63
I0
tp1389
g2
(g3
g4
Ntp1390
Rp1391
(dp1392
g8
I249
sg9
I0
sg10
I63
sbs(I62
I24
tp1393
g2
(g3
g4
Ntp1394
Rp1395
(dp1396
g8
I152
sg9
I24
sg10
I62
sbs(I74
I8
tp1397
g2
(g3
g4
Ntp1398
Rp1399
(dp1400
g8
I62
sg9
I8
sg10
I74
sbs(I73
I0
tp1401
g2
(g3
g4
Ntp1402
Rp1403
(dp1404
g8
I185
sg9
I0
sg10
I73
sbs(I72
I24
tp1405
g2
(g3
g4
Ntp1406
Rp1407
(dp1408
g8
I200
sg9
I24
sg10
I72
sbs(I76
I6
tp1409
g2
(g3
g4
Ntp1410
Rp1411
(dp1412
g8
I66
sg9
I6
sg10
I76
sbs(I74
I18
tp1413
g2
(g3
g4
Ntp1414
Rp1415
(dp1416
g8
I275
sg9
I18
sg10
I74
sbs(I78
I1
tp1417
g2
(g3
g4
Ntp1418
Rp1419
(dp1420
g8
I32
sg9
I1
sg10
I78
sbs(I65
I28
tp1421
g2
(g3
g4
Ntp1422
Rp1423
(dp1424
g8
I170
sg9
I28
sg10
I65
sbs(I64
I4
tp1425
g2
(g3
g4
Ntp1426
Rp1427
(dp1428
g8
I20
sg9
I4
sg10
I64
sbs(I79
I4
tp1429
g2
(g3
g4
Ntp1430
Rp1431
(dp1432
g8
I91
sg9
I4
sg10
I79
sbs(I65
I1
tp1433
g2
(g3
g4
Ntp1434
Rp1435
(dp1436
g8
I78
sg9
I1
sg10
I65
sbs(I68
I10
tp1437
g2
(g3
g4
Ntp1438
Rp1439
(dp1440
g8
I260
sg9
I10
sg10
I68
sbs(I67
I2
tp1441
g2
(g3
g4
Ntp1442
Rp1443
(dp1444
g8
I8
sg9
I2
sg10
I67
sbs(I66
I6
tp1445
g2
(g3
g4
Ntp1446
Rp1447
(dp1448
g8
I131
sg9
I6
sg10
I66
sbs(I70
I0
tp1449
g2
(g3
g4
Ntp1450
Rp1451
(dp1452
g8
I227
sg9
I0
sg10
I70
sbs(I69
I24
tp1453
g2
(g3
g4
Ntp1454
Rp1455
(dp1456
g8
I178
sg9
I24
sg10
I69
sbs(I83
I24
tp1457
g2
(g3
g4
Ntp1458
Rp1459
(dp1460
g8
I276
sg9
I24
sg10
I83
sbs(I66
I32
tp1461
g2
(g3
g4
Ntp1462
Rp1463
(dp1464
g8
I281
sg9
I32
sg10
I66
sbs(I80
I0
tp1465
g2
(g3
g4
Ntp1466
Rp1467
(dp1468
g8
I238
sg9
I0
sg10
I80
sbs(I57
I2
tp1469
g2
(g3
g4
Ntp1470
Rp1471
(dp1472
g8
I197
sg9
I2
sg10
I57
sbs(I59
I3
tp1473
g2
(g3
g4
Ntp1474
Rp1475
(dp1476
g8
I304
sg9
I3
sg10
I59
sbs(I62
I12
tp1477
g2
(g3
g4
Ntp1478
Rp1479
(dp1480
g8
I127
sg9
I12
sg10
I62
sbs(I60
I4
tp1481
g2
(g3
g4
Ntp1482
Rp1483
(dp1484
g8
I80
sg9
I4
sg10
I60
sbs(I72
I12
tp1485
g2
(g3
g4
Ntp1486
Rp1487
(dp1488
g8
I103
sg9
I12
sg10
I72
sbs(I62
I3
tp1489
g2
(g3
g4
Ntp1490
Rp1491
(dp1492
g8
I72
sg9
I3
sg10
I62
sbs(I74
I14
tp1493
g2
(g3
g4
Ntp1494
Rp1495
(dp1496
g8
I308
sg9
I14
sg10
I74
sbs(I72
I18
tp1497
g2
(g3
g4
Ntp1498
Rp1499
(dp1500
g8
I267
sg9
I18
sg10
I72
sbs(I-1
I-1
tp1501
g6
s(I79
I16
tp1502
g2
(g3
g4
Ntp1503
Rp1504
(dp1505
g8
I166
sg9
I16
sg10
I79
sbs(I78
I8
tp1506
g2
(g3
g4
Ntp1507
Rp1508
(dp1509
g8
I95
sg9
I8
sg10
I78
sbs(I77
I0
tp1510
g2
(g3
g4
Ntp1511
Rp1512
(dp1513
g8
I213
sg9
I0
sg10
I77
sbs(I76
I8
tp1514
g2
(g3
g4
Ntp1515
Rp1516
(dp1517
g8
I31
sg9
I8
sg10
I76
sbs(I88
I8
tp1518
g2
(g3
g4
Ntp1519
Rp1520
(dp1521
g8
I292
sg9
I8
sg10
I88
sbs(I55
I1
tp1522
g2
(g3
g4
Ntp1523
Rp1524
(dp1525
g8
I190
sg9
I1
sg10
I55
sbs(I72
I3
tp1526
g2
(g3
g4
Ntp1527
Rp1528
(dp1529
g8
I49
sg9
I3
sg10
I72
sbs(I66
I1
tp1530
g2
(g3
g4
Ntp1531
Rp1532
(dp1533
g8
I22
sg9
I1
sg10
I66
sbs(I68
I12
tp1534
g2
(g3
g4
Ntp1535
Rp1536
(dp1537
g8
I149
sg9
I12
sg10
I68
sbs(I67
I28
tp1538
g2
(g3
g4
Ntp1539
Rp1540
(dp1541
g8
I154
sg9
I28
sg10
I67
sbs(I66
I12
tp1542
g2
(g3
g4
Ntp1543
Rp1544
(dp1545
g8
I161
sg9
I12
sg10
I66
sbs(I69
I1
tp1546
g2
(g3
g4
Ntp1547
Rp1548
(dp1549
g8
I28
sg9
I1
sg10
I69
sbs(I71
I2
tp1550
g2
(g3
g4
Ntp1551
Rp1552
(dp1553
g8
I7
sg9
I2
sg10
I71
sbs(I81
I6
tp1554
g2
(g3
g4
Ntp1555
Rp1556
(dp1557
g8
I59
sg9
I6
sg10
I81
sbs(I60
I16
tp1558
g2
(g3
g4
Ntp1559
Rp1560
(dp1561
g8
I208
sg9
I16
sg10
I60
sbs(I72
I32
tp1562
g2
(g3
g4
Ntp1563
Rp1564
(dp1565
g8
I309
sg9
I32
sg10
I72
sbs(I71
I24
tp1566
g2
(g3
g4
Ntp1567
Rp1568
(dp1569
g8
I206
sg9
I24
sg10
I71
sbs(I60
I3
tp1570
g2
(g3
g4
Ntp1571
Rp1572
(dp1573
g8
I79
sg9
I3
sg10
I60
sbs(I62
I10
tp1574
g2
(g3
g4
Ntp1575
Rp1576
(dp1577
g8
I136
sg9
I10
sg10
I62
sbs(I61
I2
tp1578
g2
(g3
g4
Ntp1579
Rp1580
(dp1581
g8
I125
sg9
I2
sg10
I61
sbs(I72
I6
tp1582
g2
(g3
g4
Ntp1583
Rp1584
(dp1585
g8
I113
sg9
I6
sg10
I72
sbs(I86
I3
tp1586
g2
(g3
g4
Ntp1587
Rp1588
(dp1589
g8
I252
sg9
I3
sg10
I86
sbs(I75
I4
tp1590
g2
(g3
g4
Ntp1591
Rp1592
(dp1593
g8
I104
sg9
I4
sg10
I75
sbs(I74
I4
tp1594
g2
(g3
g4
Ntp1595
Rp1596
(dp1597
g8
I13
sg9
I4
sg10
I74
sbs(I79
I10
tp1598
g2
(g3
g4
Ntp1599
Rp1600
(dp1601
g8
I134
sg9
I10
sg10
I79
sbs(I78
I6
tp1602
g2
(g3
g4
Ntp1603
Rp1604
(dp1605
g8
I17
sg9
I6
sg10
I78
sbs(I77
I6
tp1606
g2
(g3
g4
Ntp1607
Rp1608
(dp1609
g8
I16
sg9
I6
sg10
I77
sbs(I55
I0
tp1610
g2
(g3
g4
Ntp1611
Rp1612
(dp1613
g8
I234
sg9
I0
sg10
I55
sbs(I66
I24
tp1614
g2
(g3
g4
Ntp1615
Rp1616
(dp1617
g8
I272
sg9
I24
sg10
I66
sbs(I65
I0
tp1618
g2
(g3
g4
Ntp1619
Rp1620
(dp1621
g8
I231
sg9
I0
sg10
I65
sbs(I64
I8
tp1622
g2
(g3
g4
Ntp1623
Rp1624
(dp1625
g8
I89
sg9
I8
sg10
I64
sbs(I71
I4
tp1626
g2
(g3
g4
Ntp1627
Rp1628
(dp1629
g8
I9
sg9
I4
sg10
I71
sbs(I69
I10
tp1630
g2
(g3
g4
Ntp1631
Rp1632
(dp1633
g8
I116
sg9
I10
sg10
I69
sbs(I68
I6
tp1634
g2
(g3
g4
Ntp1635
Rp1636
(dp1637
g8
I255
sg9
I6
sg10
I68
sbs(I70
I1
tp1638
g2
(g3
g4
Ntp1639
Rp1640
(dp1641
g8
I81
sg9
I1
sg10
I70
sbs(I80
I1
tp1642
g2
(g3
g4
Ntp1643
Rp1644
(dp1645
g8
I60
sg9
I1
sg10
I80
sbs(I69
I20
tp1646
g2
(g3
g4
Ntp1647
Rp1648
(dp1649
g8
I163
sg9
I20
sg10
I69
sbs(I83
I12
tp1650
g2
(g3
g4
Ntp1651
Rp1652
(dp1653
g8
I174
sg9
I12
sg10
I83
sbs(I57
I1
tp1654
g2
(g3
g4
Ntp1655
Rp1656
(dp1657
g8
I189
sg9
I1
sg10
I57
sbs(I81
I12
tp1658
g2
(g3
g4
Ntp1659
Rp1660
(dp1661
g8
I148
sg9
I12
sg10
I81
sbs(I59
I2
tp1662
g2
(g3
g4
Ntp1663
Rp1664
(dp1665
g8
I143
sg9
I2
sg10
I59
sbs(I83
I1
tp1666
g2
(g3
g4
Ntp1667
Rp1668
(dp1669
g8
I86
sg9
I1
sg10
I83
sbs(I63
I8
tp1670
g2
(g3
g4
Ntp1671
Rp1672
(dp1673
g8
I285
sg9
I8
sg10
I63
sbs(I62
I0
tp1674
g2
(g3
g4
Ntp1675
Rp1676
(dp1677
g8
I188
sg9
I0
sg10
I62
sbs(I61
I8
tp1678
g2
(g3
g4
Ntp1679
Rp1680
(dp1681
g8
I176
sg9
I8
sg10
I61
sbs(I76
I32
tp1682
g2
(g3
g4
Ntp1683
Rp1684
(dp1685
g8
I284
sg9
I32
sg10
I76
sbs(I73
I8
tp1686
g2
(g3
g4
Ntp1687
Rp1688
(dp1689
g8
I162
sg9
I8
sg10
I73
sbs(I72
I0
tp1690
g2
(g3
g4
Ntp1691
Rp1692
(dp1693
g8
I212
sg9
I0
sg10
I72
sbs(I64
I28
tp1694
g2
(g3
g4
Ntp1695
Rp1696
(dp1697
g8
I313
sg9
I28
sg10
I64
sbs(I79
I12
tp1698
g2
(g3
g4
Ntp1699
Rp1700
(dp1701
g8
I64
sg9
I12
sg10
I79
sbs(I77
I12
tp1702
g2
(g3
g4
Ntp1703
Rp1704
(dp1705
g8
I245
sg9
I12
sg10
I77
sbs(I76
I20
tp1706
g2
(g3
g4
Ntp1707
Rp1708
(dp1709
g8
I299
sg9
I20
sg10
I76
sbs(I67
I10
tp1710
g2
(g3
g4
Ntp1711
Rp1712
(dp1713
g8
I107
sg9
I10
sg10
I67
sbs(I72
I1
tp1714
g2
(g3
g4
Ntp1715
Rp1716
(dp1717
g8
I38
sg9
I1
sg10
I72
sbs(I57
I32
tp1718
g2
(g3
g4
Ntp1719
Rp1720
(dp1721
g8
I280
sg9
I32
sg10
I57
sbs(I69
I0
tp1722
g2
(g3
g4
Ntp1723
Rp1724
(dp1725
g8
I121
sg9
I0
sg10
I69
sbs(I67
I16
tp1726
g2
(g3
g4
Ntp1727
Rp1728
(dp1729
g8
I168
sg9
I16
sg10
I67
sbs(I81
I5
tp1730
g2
(g3
g4
Ntp1731
Rp1732
(dp1733
g8
I242
sg9
I5
sg10
I81
sbs(I83
I6
tp1734
g2
(g3
g4
Ntp1735
Rp1736
(dp1737
g8
I135
sg9
I6
sg10
I83
sbs(I82
I2
tp1738
g2
(g3
g4
Ntp1739
Rp1740
(dp1741
g8
I139
sg9
I2
sg10
I82
sbs(I81
I10
tp1742
g2
(g3
g4
Ntp1743
Rp1744
(dp1745
g8
I251
sg9
I10
sg10
I81
sbs(I63
I3
tp1746
g2
(g3
g4
Ntp1747
Rp1748
(dp1749
g8
I240
sg9
I3
sg10
I63
sbs(I59
I12
tp1750
g2
(g3
g4
Ntp1751
Rp1752
(dp1753
g8
I296
sg9
I12
sg10
I59
sbs(I61
I1
tp1754
g2
(g3
g4
Ntp1755
Rp1756
(dp1757
g8
I181
sg9
I1
sg10
I61
sbs(I85
I4
tp1758
g2
(g3
g4
Ntp1759
Rp1760
(dp1761
g8
I182
sg9
I4
sg10
I85
sbs(I63
I2
tp1762
g2
(g3
g4
Ntp1763
Rp1764
(dp1765
g8
I119
sg9
I2
sg10
I63
sbs(I73
I6
tp1766
g2
(g3
g4
Ntp1767
Rp1768
(dp1769
g8
I108
sg9
I6
sg10
I73
sbs(I79
I24
tp1770
g2
(g3
g4
Ntp1771
Rp1772
(dp1773
g8
I202
sg9
I24
sg10
I79
sbs(I78
I16
tp1774
g2
(g3
g4
Ntp1775
Rp1776
(dp1777
g8
I288
sg9
I16
sg10
I78
sbs(I76
I0
tp1778
g2
(g3
g4
Ntp1779
Rp1780
(dp1781
g8
I160
sg9
I0
sg10
I76
sbs(I75
I8
tp1782
g2
(g3
g4
Ntp1783
Rp1784
(dp1785
g8
I264
sg9
I8
sg10
I75
sbs(I74
I16
tp1786
g2
(g3
g4
Ntp1787
Rp1788
(dp1789
g8
I205
sg9
I16
sg10
I74
sbs(I64
I6
tp1790
g2
(g3
g4
Ntp1791
Rp1792
(dp1793
g8
I115
sg9
I6
sg10
I64
sbs(I79
I6
tp1794
g2
(g3
g4
Ntp1795
Rp1796
(dp1797
g8
I14
sg9
I6
sg10
I79
sbs(I67
I4
tp1798
g2
(g3
g4
Ntp1799
Rp1800
(dp1801
g8
I41
sg9
I4
sg10
I67
sbs(I66
I4
tp1802
g2
(g3
g4
Ntp1803
Rp1804
(dp1805
g8
I100
sg9
I4
sg10
I66
sbs(I55
I4
tp1806
g2
(g3
g4
Ntp1807
Rp1808
(dp1809
g8
I297
sg9
I4
sg10
I55
sbs(I70
I6
tp1810
g2
(g3
g4
Ntp1811
Rp1812
(dp1813
g8
I146
sg9
I6
sg10
I70
sbs(I69
I6
tp1814
g2
(g3
g4
Ntp1815
Rp1816
(dp1817
g8
I109
sg9
I6
sg10
I69
sbs(I80
I2
tp1818
g2
(g3
g4
Ntp1819
Rp1820
(dp1821
g8
I57
sg9
I2
sg10
I80
sbs(I59
I16
tp1822
g2
(g3
g4
Ntp1823
Rp1824
(dp1825
g8
I271
sg9
I16
sg10
I59
sbs(I57
I0
tp1826
g2
(g3
g4
Ntp1827
Rp1828
(dp1829
g8
I233
sg9
I0
sg10
I57
sbs(I81
I3
tp1830
g2
(g3
g4
Ntp1831
Rp1832
(dp1833
g8
I84
sg9
I3
sg10
I81
sbs(I71
I16
tp1834
g2
(g3
g4
Ntp1835
Rp1836
(dp1837
g8
I215
sg9
I16
sg10
I71
sbs(I69
I32
tp1838
g2
(g3
g4
Ntp1839
Rp1840
(dp1841
g8
I180
sg9
I32
sg10
I69
sbs(I84
I8
tp1842
g2
(g3
g4
Ntp1843
Rp1844
(dp1845
g8
I173
sg9
I8
sg10
I84
sbs(I83
I0
tp1846
g2
(g3
g4
Ntp1847
Rp1848
(dp1849
g8
I211
sg9
I0
sg10
I83
sbs(I82
I8
tp1850
g2
(g3
g4
Ntp1851
Rp1852
(dp1853
g8
I198
sg9
I8
sg10
I82
sbs(I81
I16
tp1854
g2
(g3
g4
Ntp1855
Rp1856
(dp1857
g8
I218
sg9
I16
sg10
I81
sbs(I60
I6
tp1858
g2
(g3
g4
Ntp1859
Rp1860
(dp1861
g8
I228
sg9
I6
sg10
I60
sbs(I62
I1
tp1862
g2
(g3
g4
Ntp1863
Rp1864
(dp1865
g8
I47
sg9
I1
sg10
I62
sbs(I86
I2
tp1866
g2
(g3
g4
Ntp1867
Rp1868
(dp1869
g8
I183
sg9
I2
sg10
I86
sbs(I63
I4
tp1870
g2
(g3
g4
Ntp1871
Rp1872
(dp1873
g8
I126
sg9
I4
sg10
I63
sbs(I62
I20
tp1874
g2
(g3
g4
Ntp1875
Rp1876
(dp1877
g8
I282
sg9
I20
sg10
I62
sbs(I74
I12
tp1878
g2
(g3
g4
Ntp1879
Rp1880
(dp1881
g8
I123
sg9
I12
sg10
I74
sbs(I72
I20
tp1882
g2
(g3
g4
Ntp1883
Rp1884
(dp1885
g8
I209
sg9
I20
sg10
I72
sbs(I75
I1
tp1886
g2
(g3
g4
Ntp1887
Rp1888
(dp1889
g8
I29
sg9
I1
sg10
I75
sbs(I78
I14
tp1890
g2
(g3
g4
Ntp1891
Rp1892
(dp1893
g8
I293
sg9
I14
sg10
I78
sbs(I76
I10
tp1894
g2
(g3
g4
Ntp1895
Rp1896
(dp1897
g8
I250
sg9
I10
sg10
I76
sbs(I58
I4
tp1898
g2
(g3
g4
Ntp1899
Rp1900
(dp1901
g8
I243
sg9
I4
sg10
I58
sbssS'e2i'
p1902
(dp1903
g867
I268
sg654
I277
sg1275
I274
sg839
I269
sg1720
I280
sg1612
I234
sg1824
I271
sg1291
I74
sg1616
I272
sg1075
I283
sg1095
I270
sg927
I273
sg1459
I276
sg1688
I162
sg1415
I275
sg1876
I282
sg1796
I14
sg1063
I279
sg1135
I278
sg1463
I281
sg1067
I286
sg682
I226
sg819
I291
sg1684
I284
sg875
I287
sg883
I294
sg1672
I285
sg1411
I66
sg1776
I288
sg1091
I164
sg1708
I299
sg1315
I290
sg939
I289
sg678
I303
sg1319
I295
sg1520
I292
sg935
I167
sg1892
I293
sg887
I298
sg1808
I297
sg1752
I296
sg871
I305
sg831
I302
sg1828
I233
sg1167
I301
sg1475
I304
sg1696
I313
sg1155
I300
sg1495
I308
sg775
I306
sg1860
I228
sg1564
I309
sg1247
I307
sg1379
I310
sg783
I312
sg851
I23
sg1295
I311
sg763
I232
sg1367
I172
sg1596
I13
sg1099
I42
sg1844
I173
sg1716
I38
sg1800
I41
sg1556
I59
sg1620
I231
sg1255
I40
sg1359
I37
sg1423
I170
sg895
I36
sg915
I39
sg1311
I34
sg863
I35
sg907
I45
sg1419
I32
sg714
I33
sg1035
I30
sg726
I68
sg1516
I31
sg1059
I241
sg1015
I51
sg6
I0
sg1119
I75
sg1003
I118
sg1055
I117
sg648
I1
sg1331
I175
sg1211
I25
sg1207
I26
sg1023
I19
sg1131
I24
sg1548
I28
sg1888
I29
sg1680
I176
sg1139
I43
sg963
I44
sg1532
I22
sg1764
I119
sg1700
I64
sg1127
I46
sg1864
I47
sg1031
I48
sg1403
I185
sg1528
I49
sg1608
I16
sg1604
I17
sg1239
I52
sg1351
I53
sg811
I15
sg1271
I50
sg1820
I57
sg979
I58
sg1303
I55
sg943
I56
sg779
I10
sg903
I69
sg1327
I11
sg1900
I243
sg1748
I240
sg759
I65
sg1644
I60
sg1163
I179
sg670
I61
sg1399
I62
sg771
I63
sg1552
I7
sg1087
I186
sg1195
I67
sg1011
I4
sg947
I5
sg1071
I70
sg1183
I71
sg710
I3
sg1868
I183
sg1175
I73
sg1443
I8
sg919
I2
sg1039
I76
sg1199
I77
sg1435
I78
sg1143
I184
sg1572
I79
sg1483
I80
sg1640
I81
sg835
I90
sg1788
I205
sg879
I87
sg1115
I82
sg1287
I256
sg739
I83
sg1832
I84
sg975
I85
sg1427
I20
sg1668
I86
sg1664
I143
sg1624
I89
sg787
I88
sg1704
I245
sg899
I93
sg967
I96
sg1431
I91
sg791
I92
sg995
I207
sg730
I97
sg1371
I94
sg1191
I244
sg1508
I95
sg1323
I98
sg923
I99
sg1007
I106
sg1219
I214
sg1816
I109
sg1079
I102
sg1636
I255
sg1339
I101
sg1804
I100
sg1107
I105
sg1592
I104
sg1159
I144
sg1487
I103
sg1223
I112
sg1656
I189
sg1584
I113
sg1724
I121
sg1712
I107
sg1768
I108
sg931
I145
sg1792
I115
sg1251
I110
sg1524
I190
sg803
I111
sg1283
I114
sg1343
I120
sg1447
I131
sg1512
I213
sg1047
I122
sg1632
I116
sg1307
I254
sg1600
I134
sg1880
I123
sg1872
I126
sg1479
I127
sg1536
I149
sg1383
I124
sg1580
I125
sg795
I192
sg1259
I128
sg855
I129
sg1203
I130
sg1736
I135
sg1660
I148
sg1123
I132
sg1187
I133
sg1628
I9
sg1576
I136
sg1740
I139
sg1215
I18
sg747
I141
sg959
I137
sg1231
I151
sg1375
I138
sg983
I140
sg690
I194
sg698
I142
sg1568
I206
sg1263
I150
sg1544
I161
sg1111
I147
sg1848
I211
sg755
I195
sg1560
I208
sg1812
I146
sg1019
I216
sg1884
I209
sg1692
I212
sg1235
I210
sg1491
I72
sg674
I217
sg799
I196
sg666
I155
sg1540
I154
sg1147
I156
sg1836
I215
sg694
I219
sg1856
I218
sg1504
I166
sg702
I266
sg1227
I159
sg1267
I223
sg1051
I157
sg951
I225
sg815
I54
sg718
I220
sg1648
I163
sg1451
I227
sg1279
I261
sg1151
I165
sg1355
I6
sg767
I229
sg955
I21
sg987
I230
sg1728
I168
sg1395
I152
sg859
I171
sg1840
I180
sg911
I199
sg891
I169
sg823
I235
sg1243
I236
sg999
I239
sg827
I153
sg751
I246
sg1652
I174
sg1852
I198
sg1467
I238
sg1083
I237
sg1732
I242
sg1455
I178
sg1027
I221
sg1363
I177
sg1171
I257
sg847
I258
sg706
I248
sg735
I253
sg1335
I27
sg1756
I181
sg1760
I182
sg686
I158
sg991
I222
sg658
I187
sg1676
I188
sg1772
I202
sg1896
I250
sg1103
I247
sg743
I191
sg1391
I249
sg1780
I160
sg1299
I193
sg1744
I251
sg1347
I203
sg1588
I252
sg1499
I267
sg1471
I197
sg1439
I260
sg662
I204
sg722
I224
sg1043
I265
sg1387
I262
sg1407
I200
sg1179
I201
sg807
I259
sg971
I263
sg1784
I264
sg843
I12
ssS'events'
p1904
g12
((lp1905
g706
ag1896
ag1179
ag1039
ag823
ag1199
ag1435
ag811
ag1572
ag1483
ag1648
ag1640
ag1708
ag807
ag1095
ag835
ag698
ag879
ag1696
ag1115
ag1756
ag1455
ag739
ag1135
ag1832
ag1776
ag1055
ag975
ag1824
ag1668
ag1568
ag1624
ag1760
ag787
ag979
ag899
ag1299
ag967
ag1451
ag1151
ag1167
ag1431
ag1560
ag791
ag1684
ag1263
ag730
ag654
ag1371
ag678
ag1303
ag735
ag1508
ag1744
ag1323
ag1387
ag767
ag1467
ag923
ag1656
ag1007
ag1267
ag1111
ag1808
ag1816
ag1079
ag1676
ag1339
ag927
ag1804
ag987
ag935
ag1107
ag1103
ag1772
ag1495
ag1592
ag1848
ag1243
ag1487
ag1363
ag1223
ag779
ag1584
ag1724
ag1728
ag1712
ag658
ag1884
ag1768
ag931
ag1792
ag662
ag1251
ag1327
ag1840
ag803
ag1836
ag1283
ag1688
ag1023
ag1343
ag1616
ag1447
ag1319
ag1812
ag1287
ag1047
ag1295
ag1043
ag1632
ag743
ag1600
ag690
ag1880
ag1131
ag1331
ag1872
ag871
ag1512
ag1479
ag875
ag1019
ag1383
ag1275
ag1580
ag1828
ag1644
ag1259
ag1588
ag855
ag891
ag1083
ag1203
ag1524
ag1736
ag1660
ag1752
ag1123
ag887
ag995
ag1187
ag1463
ag670
ag1379
ag1576
ag971
ag1459
ag1235
ag1740
ag1367
ag747
ag1307
ag959
ag1231
ag999
ag1375
ag983
ag1856
ag859
ag1099
ag1520
ag1844
ag1704
ag1664
ag1784
ag1716
ag674
ag1800
ag911
ag1900
ag1159
ag771
ag1255
ag831
ag1359
ag963
ag1536
ag1415
ag895
ag1860
ag666
ag915
ag1279
ag1544
ag1552
ag775
ag1311
ag755
ag1868
ag863
ag1764
ag1680
ag1147
ag1419
ag883
ag1540
ag783
ag714
ag839
ag1504
ag1471
ag1035
ag1499
ag1516
ag819
ag1652
ag1732
ag1051
ag6
ag951
ag718
ag1423
ag1003
ag1219
ag1119
ag1067
ag1011
ag1191
ag648
ag1091
ag1864
ag1211
ag1391
ag1407
ag1207
ag1395
ag751
ag1335
ag851
ag947
ag1548
ag1876
ag1888
ag1620
ag1031
ag1139
ag1532
ag827
ag1564
ag907
ag1143
ag1127
ag1852
ag1215
ag955
ag1403
ag1528
ag1692
ag1608
ag1027
ag1604
ag847
ag1239
ag1315
ag1183
ag1171
ag1351
ag799
ag815
ag1271
ag1155
ag1820
ag843
ag1672
ag1227
ag1636
ag1596
ag1720
ag943
ag710
ag1556
ag702
ag1075
ag1700
ag682
ag1015
ag1748
ag759
ag795
ag1475
ag1443
ag1612
ag1780
ag1163
ag1628
ag694
ag1063
ag1399
ag763
ag1347
ag1355
ag867
ag1411
ag1087
ag1247
ag1195
ag1439
ag726
ag722
ag1059
ag903
ag1892
ag1071
ag991
ag919
ag1427
ag1788
ag1491
ag1796
ag1175
ag1291
ag939
ag686
atp1906
Rp1907
sS'i2e'
p1908
(dp1909
I0
g6
sI1
g648
sI2
g919
sI3
g710
sI4
g1011
sI5
g947
sI6
g1355
sI7
g1552
sI8
g1443
sI9
g1628
sI10
g779
sI11
g1327
sI12
g843
sI13
g1596
sI14
g1796
sI15
g811
sI16
g1608
sI17
g1604
sI18
g1215
sI19
g1023
sI20
g1427
sI21
g955
sI22
g1532
sI23
g851
sI24
g1131
sI25
g1211
sI26
g1207
sI27
g1335
sI28
g1548
sI29
g1888
sI30
g1035
sI31
g1516
sI32
g1419
sI33
g714
sI34
g1311
sI35
g863
sI36
g895
sI37
g1359
sI38
g1716
sI39
g915
sI40
g1255
sI41
g1800
sI42
g1099
sI43
g1139
sI44
g963
sI45
g907
sI46
g1127
sI47
g1864
sI48
g1031
sI49
g1528
sI50
g1271
sI51
g1015
sI52
g1239
sI53
g1351
sI54
g815
sI55
g1303
sI56
g943
sI57
g1820
sI58
g979
sI59
g1556
sI60
g1644
sI61
g670
sI62
g1399
sI63
g771
sI64
g1700
sI65
g759
sI66
g1411
sI67
g1195
sI68
g726
sI69
g903
sI70
g1071
sI71
g1183
sI72
g1491
sI73
g1175
sI74
g1291
sI75
g1119
sI76
g1039
sI77
g1199
sI78
g1435
sI79
g1572
sI80
g1483
sI81
g1640
sI82
g1115
sI83
g739
sI84
g1832
sI85
g975
sI86
g1668
sI87
g879
sI88
g787
sI89
g1624
sI90
g835
sI91
g1431
sI92
g791
sI93
g899
sI94
g1371
sI95
g1508
sI96
g967
sI97
g730
sI98
g1323
sI99
g923
sI100
g1804
sI101
g1339
sI102
g1079
sI103
g1487
sI104
g1592
sI105
g1107
sI106
g1007
sI107
g1712
sI108
g1768
sI109
g1816
sI110
g1251
sI111
g803
sI112
g1223
sI113
g1584
sI114
g1283
sI115
g1792
sI116
g1632
sI117
g1055
sI118
g1003
sI119
g1764
sI120
g1343
sI121
g1724
sI122
g1047
sI123
g1880
sI124
g1383
sI125
g1580
sI126
g1872
sI127
g1479
sI128
g1259
sI129
g855
sI130
g1203
sI131
g1447
sI132
g1123
sI133
g1187
sI134
g1600
sI135
g1736
sI136
g1576
sI137
g959
sI138
g1375
sI139
g1740
sI140
g983
sI141
g747
sI142
g698
sI143
g1664
sI144
g1159
sI145
g931
sI146
g1812
sI147
g1111
sI148
g1660
sI149
g1536
sI150
g1263
sI151
g1231
sI152
g1395
sI153
g827
sI154
g1540
sI155
g666
sI156
g1147
sI157
g1051
sI158
g686
sI159
g1227
sI160
g1780
sI161
g1544
sI162
g1688
sI163
g1648
sI164
g1091
sI165
g1151
sI166
g1504
sI167
g935
sI168
g1728
sI169
g891
sI170
g1423
sI171
g859
sI172
g1367
sI173
g1844
sI174
g1652
sI175
g1331
sI176
g1680
sI177
g1363
sI178
g1455
sI179
g1163
sI180
g1840
sI181
g1756
sI182
g1760
sI183
g1868
sI184
g1143
sI185
g1403
sI186
g1087
sI187
g658
sI188
g1676
sI189
g1656
sI190
g1524
sI191
g743
sI192
g795
sI193
g1299
sI194
g690
sI195
g755
sI196
g799
sI197
g1471
sI198
g1852
sI199
g911
sI200
g1407
sI201
g1179
sI202
g1772
sI203
g1347
sI204
g662
sI205
g1788
sI206
g1568
sI207
g995
sI208
g1560
sI209
g1884
sI210
g1235
sI211
g1848
sI212
g1692
sI213
g1512
sI214
g1219
sI215
g1836
sI216
g1019
sI217
g674
sI218
g1856
sI219
g694
sI220
g718
sI221
g1027
sI222
g991
sI223
g1267
sI224
g722
sI225
g951
sI226
g682
sI227
g1451
sI228
g1860
sI229
g767
sI230
g987
sI231
g1620
sI232
g763
sI233
g1828
sI234
g1612
sI235
g823
sI236
g1243
sI237
g1083
sI238
g1467
sI239
g999
sI240
g1748
sI241
g1059
sI242
g1732
sI243
g1900
sI244
g1191
sI245
g1704
sI246
g751
sI247
g1103
sI248
g706
sI249
g1391
sI250
g1896
sI251
g1744
sI252
g1588
sI253
g735
sI254
g1307
sI255
g1636
sI256
g1287
sI257
g1171
sI258
g847
sI259
g807
sI260
g1439
sI261
g1279
sI262
g1387
sI263
g971
sI264
g1784
sI265
g1043
sI266
g702
sI267
g1499
sI268
g867
sI269
g839
sI270
g1095
sI271
g1824
sI272
g1616
sI273
g927
sI274
g1275
sI275
g1415
sI276
g1459
sI277
g654
sI278
g1135
sI279
g1063
sI280
g1720
sI281
g1463
sI282
g1876
sI283
g1075
sI284
g1684
sI285
g1672
sI286
g1067
sI287
g875
sI288
g1776
sI289
g939
sI290
g1315
sI291
g819
sI292
g1520
sI293
g1892
sI294
g883
sI295
g1319
sI296
g1752
sI297
g1808
sI298
g887
sI299
g1708
sI300
g1155
sI301
g1167
sI302
g831
sI303
g678
sI304
g1475
sI305
g871
sI306
g775
sI307
g1247
sI308
g1495
sI309
g1564
sI310
g1379
sI311
g1295
sI312
g783
sI313
g1696
ss.