(dp0
S'END_EVENT'
p1
ccopy_reg
_reconstructor
p2
(cutil
PitchDurationEvent
p3
c__builtin__
object
p4
Ntp5
Rp6
(dp7
S'i'
p8
I1
sS'duration'
p9
I-1
sS'pitch'
p10
I-2
sbsS'i2e'
p11
(dp12
I0
g2
(g3
g4
Ntp13
Rp14
(dp15
g8
I0
sg9
I-1
sg10
I-1
sbsI1
g6
sI2
g2
(g3
g4
Ntp16
Rp17
(dp18
g8
I2
sg9
I2
sg10
I76
sbsI3
g2
(g3
g4
Ntp19
Rp20
(dp21
g8
I3
sg9
I2
sg10
I74
sbsI4
g2
(g3
g4
Ntp22
Rp23
(dp24
g8
I4
sg9
I2
sg10
I73
sbsI5
g2
(g3
g4
Ntp25
Rp26
(dp27
g8
I5
sg9
I2
sg10
I66
sbsI6
g2
(g3
g4
Ntp28
Rp29
(dp30
g8
I6
sg9
I2
sg10
I69
sbsI7
g2
(g3
g4
Ntp31
Rp32
(dp33
g8
I7
sg9
I2
sg10
I71
sbsI8
g2
(g3
g4
Ntp34
Rp35
(dp36
g8
I8
sg9
I2
sg10
I67
sbsI9
g2
(g3
g4
Ntp37
Rp38
(dp39
g8
I9
sg9
I4
sg10
I71
sbsI10
g2
(g3
g4
Ntp40
Rp41
(dp42
g8
I10
sg9
I2
sg10
I81
sbsI11
g2
(g3
g4
Ntp43
Rp44
(dp45
g8
I11
sg9
I2
sg10
I79
sbsI12
g2
(g3
g4
Ntp46
Rp47
(dp48
g8
I12
sg9
I2
sg10
I78
sbsI13
g2
(g3
g4
Ntp49
Rp50
(dp51
g8
I13
sg9
I4
sg10
I74
sbsI14
g2
(g3
g4
Ntp52
Rp53
(dp54
g8
I14
sg9
I6
sg10
I79
sbsI15
g2
(g3
g4
Ntp55
Rp56
(dp57
g8
I15
sg9
I2
sg10
I72
sbsI16
g2
(g3
g4
Ntp58
Rp59
(dp60
g8
I16
sg9
I6
sg10
I77
sbsI17
g2
(g3
g4
Ntp61
Rp62
(dp63
g8
I17
sg9
I6
sg10
I78
sbsI18
g2
(g3
g4
Ntp64
Rp65
(dp66
g8
I18
sg9
I6
sg10
I74
sbsI19
g2
(g3
g4
Ntp67
Rp68
(dp69
g8
I19
sg9
I4
sg10
I76
sbsI20
g2
(g3
g4
Ntp70
Rp71
(dp72
g8
I20
sg9
I4
sg10
I64
sbsI21
g2
(g3
g4
Ntp73
Rp74
(dp75
g8
I21
sg9
I1
sg10
I68
sbsI22
g2
(g3
g4
Ntp76
Rp77
(dp78
g8
I22
sg9
I1
sg10
I66
sbsI23
g2
(g3
g4
Ntp79
Rp80
(dp81
g8
I23
sg9
I1
sg10
I64
sbsI24
g2
(g3
g4
Ntp82
Rp83
(dp84
g8
I24
sg9
I2
sg10
I68
sbsI25
g2
(g3
g4
Ntp85
Rp86
(dp87
g8
I25
sg9
I2
sg10
I75
sbsI26
g2
(g3
g4
Ntp88
Rp89
(dp90
g8
I26
sg9
I1
sg10
I73
sbsI27
g2
(g3
g4
Ntp91
Rp92
(dp93
g8
I27
sg9
I1
sg10
I71
sbsI28
g2
(g3
g4
Ntp94
Rp95
(dp96
g8
I28
sg9
I1
sg10
I69
sbsI29
g2
(g3
g4
Ntp97
Rp98
(dp99
g8
I29
sg9
I1
sg10
I75
sbsI30
g2
(g3
g4
Ntp100
Rp101
(dp102
g8
I30
sg9
I2
sg10
I64
sbsI31
g2
(g3
g4
Ntp103
Rp104
(dp105
g8
I31
sg9
I8
sg10
I76
sbsI32
g2
(g3
g4
Ntp106
Rp107
(dp108
g8
I32
sg9
I1
sg10
I78
sbsI33
g2
(g3
g4
Ntp109
Rp110
(dp111
g8
I33
sg9
I1
sg10
I76
sbsI34
g2
(g3
g4
Ntp112
Rp113
(dp114
g8
I34
sg9
I1
sg10
I74
sbsI35
g2
(g3
g4
Ntp115
Rp116
(dp117
g8
I35
sg9
I1
sg10
I67
sbsI36
g2
(g3
g4
Ntp118
Rp119
(dp120
g8
I36
sg9
I8
sg10
I81
sbsI37
g2
(g3
g4
Ntp121
Rp122
(dp123
g8
I37
sg9
I3
sg10
I71
sbsI38
g2
(g3
g4
Ntp124
Rp125
(dp126
g8
I38
sg9
I1
sg10
I72
sbsI39
g2
(g3
g4
Ntp127
Rp128
(dp129
g8
I39
sg9
I3
sg10
I74
sbsI40
g2
(g3
g4
Ntp130
Rp131
(dp132
g8
I40
sg9
I3
sg10
I67
sbsI41
g2
(g3
g4
Ntp133
Rp134
(dp135
g8
I41
sg9
I4
sg10
I67
sbsI42
g2
(g3
g4
Ntp136
Rp137
(dp138
g8
I42
sg9
I3
sg10
I76
sbsI43
g2
(g3
g4
Ntp139
Rp140
(dp141
g8
I43
sg9
I3
sg10
I69
sbsI44
g2
(g3
g4
Ntp142
Rp143
(dp144
g8
I44
sg9
I4
sg10
I69
sbsI45
g2
(g3
g4
Ntp145
Rp146
(dp147
g8
I45
sg9
I4
sg10
I73
sbsI46
g2
(g3
g4
Ntp148
Rp149
(dp150
g8
I46
sg9
I3
sg10
I66
sbsI47
g2
(g3
g4
Ntp151
Rp152
(dp153
g8
I47
sg9
I1
sg10
I62
sbsI48
g2
(g3
g4
Ntp154
Rp155
(dp156
g8
I48
sg9
I3
sg10
I78
sbsI49
g2
(g3
g4
Ntp157
Rp158
(dp159
g8
I49
sg9
I3
sg10
I72
sbsI50
g2
(g3
g4
Ntp160
Rp161
(dp162
g8
I50
sg9
I3
sg10
I70
sbsI51
g2
(g3
g4
Ntp163
Rp164
(dp165
g8
I51
sg9
I3
sg10
I75
sbsI52
g2
(g3
g4
Ntp166
Rp167
(dp168
g8
I52
sg9
I3
sg10
I64
sbsI53
g2
(g3
g4
Ntp169
Rp170
(dp171
g8
I53
sg9
I3
sg10
I68
sbsI54
g2
(g3
g4
Ntp172
Rp173
(dp174
g8
I54
sg9
I3
sg10
I73
sbsI55
g2
(g3
g4
Ntp175
Rp176
(dp177
g8
I55
sg9
I2
sg10
I62
sbsI56
g2
(g3
g4
Ntp178
Rp179
(dp180
g8
I56
sg9
I6
sg10
I67
sbsI57
g2
(g3
g4
Ntp181
Rp182
(dp183
g8
I57
sg9
I2
sg10
I80
sbsI58
g2
(g3
g4
Ntp184
Rp185
(dp186
g8
I58
sg9
I2
sg10
I83
sbsI59
g2
(g3
g4
Ntp187
Rp188
(dp189
g8
I59
sg9
I6
sg10
I81
sbsI60
g2
(g3
g4
Ntp190
Rp191
(dp192
g8
I60
sg9
I1
sg10
I80
sbsI61
g2
(g3
g4
Ntp193
Rp194
(dp195
g8
I61
sg9
I4
sg10
I81
sbsI62
g2
(g3
g4
Ntp196
Rp197
(dp198
g8
I62
sg9
I8
sg10
I74
sbsI63
g2
(g3
g4
Ntp199
Rp200
(dp201
g8
I63
sg9
I6
sg10
I71
sbsI64
g2
(g3
g4
Ntp202
Rp203
(dp204
g8
I64
sg9
I12
sg10
I79
sbsI65
g2
(g3
g4
Ntp205
Rp206
(dp207
g8
I65
sg9
I8
sg10
I69
sbsI66
g2
(g3
g4
Ntp208
Rp209
(dp210
g8
I66
sg9
I6
sg10
I76
sbsI67
g2
(g3
g4
Ntp211
Rp212
(dp213
g8
I67
sg9
I12
sg10
I73
sbsI68
g2
(g3
g4
Ntp214
Rp215
(dp216
g8
I68
sg9
I4
sg10
I78
sbsI69
g2
(g3
g4
Ntp217
Rp218
(dp219
g8
I69
sg9
I2
sg10
I85
sbsI70
g2
(g3
g4
Ntp220
Rp221
(dp222
g8
I70
sg9
I4
sg10
I86
sbsI71
g2
(g3
g4
Ntp223
Rp224
(dp225
g8
I71
sg9
I4
sg10
I62
sbsI72
g2
(g3
g4
Ntp226
Rp227
(dp228
g8
I72
sg9
I3
sg10
I62
sbsI73
g2
(g3
g4
Ntp229
Rp230
(dp231
g8
I73
sg9
I1
sg10
I60
sbsI74
g2
(g3
g4
Ntp232
Rp233
(dp234
g8
I74
sg9
I3
sg10
I57
sbsI75
g2
(g3
g4
Ntp235
Rp236
(dp237
g8
I75
sg9
I4
sg10
I65
sbsI76
g2
(g3
g4
Ntp238
Rp239
(dp240
g8
I76
sg9
I3
sg10
I65
sbsI77
g2
(g3
g4
Ntp241
Rp242
(dp243
g8
I77
sg9
I4
sg10
I72
sbsI78
g2
(g3
g4
Ntp244
Rp245
(dp246
g8
I78
sg9
I1
sg10
I65
sbsI79
g2
(g3
g4
Ntp247
Rp248
(dp249
g8
I79
sg9
I3
sg10
I60
sbsI80
g2
(g3
g4
Ntp250
Rp251
(dp252
g8
I80
sg9
I4
sg10
I60
sbsI81
g2
(g3
g4
Ntp253
Rp254
(dp255
g8
I81
sg9
I1
sg10
I70
sbsI82
g2
(g3
g4
Ntp256
Rp257
(dp258
g8
I82
sg9
I3
sg10
I79
sbsI83
g2
(g3
g4
Ntp259
Rp260
(dp261
g8
I83
sg9
I1
sg10
I79
sbsI84
g2
(g3
g4
Ntp262
Rp263
(dp264
g8
I84
sg9
I3
sg10
I81
sbsI85
g2
(g3
g4
Ntp265
Rp266
(dp267
g8
I85
sg9
I1
sg10
I81
sbsI86
g2
(g3
g4
Ntp268
Rp269
(dp270
g8
I86
sg9
I1
sg10
I83
sbsI87
g2
(g3
g4
Ntp271
Rp272
(dp273
g8
I87
sg9
I8
sg10
I71
sbsI88
g2
(g3
g4
Ntp274
Rp275
(dp276
g8
I88
sg9
I4
sg10
I59
sbsI89
g2
(g3
g4
Ntp277
Rp278
(dp279
g8
I89
sg9
I8
sg10
I64
sbsI90
g2
(g3
g4
Ntp280
Rp281
(dp282
g8
I90
sg9
I11
sg10
I76
sbsI91
g2
(g3
g4
Ntp283
Rp284
(dp285
g8
I91
sg9
I4
sg10
I79
sbsI92
g2
(g3
g4
Ntp286
Rp287
(dp288
g8
I92
sg9
I3
sg10
I83
sbsI93
g2
(g3
g4
Ntp289
Rp290
(dp291
g8
I93
sg9
I3
sg10
I84
sbsI94
g2
(g3
g4
Ntp292
Rp293
(dp294
g8
I94
sg9
I4
sg10
I83
sbsI95
g2
(g3
g4
Ntp295
Rp296
(dp297
g8
I95
sg9
I8
sg10
I78
sbsI96
g2
(g3
g4
Ntp298
Rp299
(dp300
g8
I96
sg9
I4
sg10
I80
sbsI97
g2
(g3
g4
Ntp301
Rp302
(dp303
g8
I97
sg9
I4
sg10
I77
sbsI98
g2
(g3
g4
Ntp304
Rp305
(dp306
g8
I98
sg9
I1
sg10
I77
sbsI99
g2
(g3
g4
Ntp307
Rp308
(dp309
g8
I99
sg9
I3
sg10
I77
sbsI100
g2
(g3
g4
Ntp310
Rp311
(dp312
g8
I100
sg9
I4
sg10
I66
sbsI101
g2
(g3
g4
Ntp313
Rp314
(dp315
g8
I101
sg9
I8
sg10
I67
sbsI102
g2
(g3
g4
Ntp316
Rp317
(dp318
g8
I102
sg9
I10
sg10
I72
sbsI103
g2
(g3
g4
Ntp319
Rp320
(dp321
g8
I103
sg9
I12
sg10
I72
sbsI104
g2
(g3
g4
Ntp322
Rp323
(dp324
g8
I104
sg9
I4
sg10
I75
sbsI105
g2
(g3
g4
Ntp325
Rp326
(dp327
g8
I105
sg9
I2
sg10
I77
sbsI106
g2
(g3
g4
Ntp328
Rp329
(dp330
g8
I106
sg9
I10
sg10
I74
sbsI107
g2
(g3
g4
Ntp331
Rp332
(dp333
g8
I107
sg9
I10
sg10
I67
sbsI108
g2
(g3
g4
Ntp334
Rp335
(dp336
g8
I108
sg9
I6
sg10
I73
sbsI109
g2
(g3
g4
Ntp337
Rp338
(dp339
g8
I109
sg9
I6
sg10
I69
sbsI110
g2
(g3
g4
Ntp340
Rp341
(dp342
g8
I110
sg9
I2
sg10
I65
sbsI111
g2
(g3
g4
Ntp343
Rp344
(dp345
g8
I111
sg9
I6
sg10
I62
sbsI112
g2
(g3
g4
Ntp346
Rp347
(dp348
g8
I112
sg9
I8
sg10
I79
sbsI113
g2
(g3
g4
Ntp349
Rp350
(dp351
g8
I113
sg9
I6
sg10
I72
sbsI114
g2
(g3
g4
Ntp352
Rp353
(dp354
g8
I114
sg9
I10
sg10
I71
sbsI115
g2
(g3
g4
Ntp355
Rp356
(dp357
g8
I115
sg9
I6
sg10
I64
sbsI116
g2
(g3
g4
Ntp358
Rp359
(dp360
g8
I116
sg9
I10
sg10
I69
sbsI117
g2
(g3
g4
Ntp361
Rp362
(dp363
g8
I117
sg9
I2
sg10
I70
sbsI118
g2
(g3
g4
Ntp364
Rp365
(dp366
g8
I118
sg9
I6
sg10
I63
sbsI119
g2
(g3
g4
Ntp367
Rp368
(dp369
g8
I119
sg9
I2
sg10
I63
sbsI120
g2
(g3
g4
Ntp370
Rp371
(dp372
g8
I120
sg9
I0
sg10
I66
sbsI121
g2
(g3
g4
Ntp373
Rp374
(dp375
g8
I121
sg9
I0
sg10
I69
sbsI122
g2
(g3
g4
Ntp376
Rp377
(dp378
g8
I122
sg9
I0
sg10
I67
sbsI123
g2
(g3
g4
Ntp379
Rp380
(dp381
g8
I123
sg9
I12
sg10
I74
sbsI124
g2
(g3
g4
Ntp382
Rp383
(dp384
g8
I124
sg9
I2
sg10
I60
sbsI125
g2
(g3
g4
Ntp385
Rp386
(dp387
g8
I125
sg9
I2
sg10
I61
sbsI126
g2
(g3
g4
Ntp388
Rp389
(dp390
g8
I126
sg9
I4
sg10
I63
sbsI127
g2
(g3
g4
Ntp391
Rp392
(dp393
g8
I127
sg9
I12
sg10
I62
sbsI128
g2
(g3
g4
Ntp394
Rp395
(dp396
g8
I128
sg9
I12
sg10
I69
sbsI129
g2
(g3
g4
Ntp397
Rp398
(dp399
g8
I129
sg9
I12
sg10
I67
sbsI130
g2
(g3
g4
Ntp400
Rp401
(dp402
g8
I130
sg9
I12
sg10
I76
sbsI131
g2
(g3
g4
Ntp403
Rp404
(dp405
g8
I131
sg9
I6
sg10
I66
sbsI132
g2
(g3
g4
Ntp406
Rp407
(dp408
g8
I132
sg9
I12
sg10
I64
sbsI133
g2
(g3
g4
Ntp409
Rp410
(dp411
g8
I133
sg9
I4
sg10
I61
sbsI134
g2
(g3
g4
Ntp412
Rp413
(dp414
g8
I134
sg9
I10
sg10
I79
sbsI135
g2
(g3
g4
Ntp415
Rp416
(dp417
g8
I135
sg9
I6
sg10
I83
sbsI136
g2
(g3
g4
Ntp418
Rp419
(dp420
g8
I136
sg9
I10
sg10
I62
sbsI137
g2
(g3
g4
Ntp421
Rp422
(dp423
g8
I137
sg9
I4
sg10
I70
sbsI138
g2
(g3
g4
Ntp424
Rp425
(dp426
g8
I138
sg9
I4
sg10
I82
sbsI139
g2
(g3
g4
Ntp427
Rp428
(dp429
g8
I139
sg9
I2
sg10
I82
sbsI140
g2
(g3
g4
Ntp430
Rp431
(dp432
g8
I140
sg9
I6
sg10
I82
sbsI141
g2
(g3
g4
Ntp433
Rp434
(dp435
g8
I141
sg9
I6
sg10
I65
sbsI142
g2
(g3
g4
Ntp436
Rp437
(dp438
g8
I142
sg9
I8
sg10
I72
sbsI143
g2
(g3
g4
Ntp439
Rp440
(dp441
g8
I143
sg9
I2
sg10
I59
sbsI144
g2
(g3
g4
Ntp442
Rp443
(dp444
g8
I144
sg9
I0
sg10
I81
sbsI145
g2
(g3
g4
Ntp445
Rp446
(dp447
g8
I145
sg9
I0
sg10
I79
sbsI146
g2
(g3
g4
Ntp448
Rp449
(dp450
g8
I146
sg9
I6
sg10
I70
sbsI147
g2
(g3
g4
Ntp451
Rp452
(dp453
g8
I147
sg9
I6
sg10
I80
sbsI148
g2
(g3
g4
Ntp454
Rp455
(dp456
g8
I148
sg9
I12
sg10
I81
sbsI149
g2
(g3
g4
Ntp457
Rp458
(dp459
g8
I149
sg9
I12
sg10
I68
sbsI150
g2
(g3
g4
Ntp460
Rp461
(dp462
g8
I150
sg9
I4
sg10
I68
sbsI151
g2
(g3
g4
Ntp463
Rp464
(dp465
g8
I151
sg9
I8
sg10
I77
sbsI152
g2
(g3
g4
Ntp466
Rp467
(dp468
g8
I152
sg9
I24
sg10
I62
sbsI153
g2
(g3
g4
Ntp469
Rp470
(dp471
g8
I153
sg9
I24
sg10
I74
sbsI154
g2
(g3
g4
Ntp472
Rp473
(dp474
g8
I154
sg9
I28
sg10
I67
sbsI155
g2
(g3
g4
Ntp475
Rp476
(dp477
g8
I155
sg9
I12
sg10
I70
sbsI156
g2
(g3
g4
Ntp478
Rp479
(dp480
g8
I156
sg9
I8
sg10
I70
sbsI157
g2
(g3
g4
Ntp481
Rp482
(dp483
g8
I157
sg9
I8
sg10
I66
sbsI158
g2
(g3
g4
Ntp484
Rp485
(dp486
g8
I158
sg9
I8
sg10
I62
sbsI159
g2
(g3
g4
Ntp487
Rp488
(dp489
g8
I159
sg9
I0
sg10
I78
sbsI160
g2
(g3
g4
Ntp490
Rp491
(dp492
g8
I160
sg9
I0
sg10
I76
sbsI161
g2
(g3
g4
Ntp493
Rp494
(dp495
g8
I161
sg9
I12
sg10
I66
sbsI162
g2
(g3
g4
Ntp496
Rp497
(dp498
g8
I162
sg9
I8
sg10
I73
sbsI163
g2
(g3
g4
Ntp499
Rp500
(dp501
g8
I163
sg9
I20
sg10
I69
sbsI164
g2
(g3
g4
Ntp502
Rp503
(dp504
g8
I164
sg9
I24
sg10
I73
sbsI165
g2
(g3
g4
Ntp505
Rp506
(dp507
g8
I165
sg9
I16
sg10
I69
sbsI166
g2
(g3
g4
Ntp508
Rp509
(dp510
g8
I166
sg9
I16
sg10
I79
sbsI167
g2
(g3
g4
Ntp511
Rp512
(dp513
g8
I167
sg9
I16
sg10
I77
sbsI168
g2
(g3
g4
Ntp514
Rp515
(dp516
g8
I168
sg9
I16
sg10
I67
sbsI169
g2
(g3
g4
Ntp517
Rp518
(dp519
g8
I169
sg9
I8
sg10
I83
sbsI170
g2
(g3
g4
Ntp520
Rp521
(dp522
g8
I170
sg9
I28
sg10
I65
sbsI171
g2
(g3
g4
Ntp523
Rp524
(dp525
g8
I171
sg9
I12
sg10
I65
sbsI172
g2
(g3
g4
Ntp526
Rp527
(dp528
g8
I172
sg9
I12
sg10
I71
sbsI173
g2
(g3
g4
Ntp529
Rp530
(dp531
g8
I173
sg9
I8
sg10
I84
sbsI174
g2
(g3
g4
Ntp532
Rp533
(dp534
g8
I174
sg9
I12
sg10
I83
sbsI175
g2
(g3
g4
Ntp535
Rp536
(dp537
g8
I175
sg9
I16
sg10
I62
sbsI176
g2
(g3
g4
Ntp538
Rp539
(dp540
g8
I176
sg9
I8
sg10
I61
sbsI177
g2
(g3
g4
Ntp541
Rp542
(dp543
g8
I177
sg9
I4
sg10
I57
sbsI178
g2
(g3
g4
Ntp544
Rp545
(dp546
g8
I178
sg9
I24
sg10
I69
sbsI179
g2
(g3
g4
Ntp547
Rp548
(dp549
g8
I179
sg9
I8
sg10
I80
sbsI180
g2
(g3
g4
Ntp550
Rp551
(dp552
g8
I180
sg9
I32
sg10
I69
sbsI181
g2
(g3
g4
Ntp553
Rp554
(dp555
g8
I181
sg9
I1
sg10
I61
sbsI182
g2
(g3
g4
Ntp556
Rp557
(dp558
g8
I182
sg9
I4
sg10
I85
sbsI183
g2
(g3
g4
Ntp559
Rp560
(dp561
g8
I183
sg9
I2
sg10
I86
sbsI184
g2
(g3
g4
Ntp562
Rp563
(dp564
g8
I184
sg9
I0
sg10
I71
sbsI185
g2
(g3
g4
Ntp565
Rp566
(dp567
g8
I185
sg9
I0
sg10
I73
sbsI186
g2
(g3
g4
Ntp568
Rp569
(dp570
g8
I186
sg9
I0
sg10
I74
sbsI187
g2
(g3
g4
Ntp571
Rp572
(dp573
g8
I187
sg9
I0
sg10
I64
sbsI188
g2
(g3
g4
Ntp574
Rp575
(dp576
g8
I188
sg9
I0
sg10
I62
sbsI189
g2
(g3
g4
Ntp577
Rp578
(dp579
g8
I189
sg9
I1
sg10
I57
sbsI190
g2
(g3
g4
Ntp580
Rp581
(dp582
g8
I190
sg9
I1
sg10
I55
sbsI191
g2
(g3
g4
Ntp583
Rp584
(dp585
g8
I191
sg9
I1
sg10
I59
sbsI192
g2
(g3
g4
Ntp586
Rp587
(dp588
g8
I192
sg9
I1
sg10
I85
sbsI193
g2
(g3
g4
Ntp589
Rp590
(dp591
g8
I193
sg9
I0
sg10
I59
sbsI194
g2
(g3
g4
Ntp592
Rp593
(dp594
g8
I194
sg9
I0
sg10
I61
sbsI195
g2
(g3
g4
Ntp595
Rp596
(dp597
g8
I195
sg9
I5
sg10
I66
sbsI196
g2
(g3
g4
Ntp598
Rp599
(dp600
g8
I196
sg9
I4
sg10
I84
sbsI197
g2
(g3
g4
Ntp601
Rp602
(dp603
g8
I197
sg9
I2
sg10
I57
sbsI198
g2
(g3
g4
Ntp604
Rp605
(dp606
g8
I198
sg9
I8
sg10
I82
sbsI199
g2
(g3
g4
Ntp607
Rp608
(dp609
g8
I199
sg9
I28
sg10
I72
sbsI200
g2
(g3
g4
Ntp610
Rp611
(dp612
g8
I200
sg9
I24
sg10
I72
sbsI201
g2
(g3
g4
Ntp613
Rp614
(dp615
g8
I201
sg9
I6
sg10
I84
sbsI202
g2
(g3
g4
Ntp616
Rp617
(dp618
g8
I202
sg9
I24
sg10
I79
sbsI203
g2
(g3
g4
Ntp619
Rp620
(dp621
g8
I203
sg9
I8
sg10
I65
sbsI204
g2
(g3
g4
Ntp622
Rp623
(dp624
g8
I204
sg9
I10
sg10
I66
sbsI205
g2
(g3
g4
Ntp625
Rp626
(dp627
g8
I205
sg9
I16
sg10
I74
sbsI206
g2
(g3
g4
Ntp628
Rp629
(dp630
g8
I206
sg9
I24
sg10
I71
sbsI207
g2
(g3
g4
Ntp631
Rp632
(dp633
g8
I207
sg9
I32
sg10
I74
sbsI208
g2
(g3
g4
Ntp634
Rp635
(dp636
g8
I208
sg9
I16
sg10
I60
sbsI209
g2
(g3
g4
Ntp637
Rp638
(dp639
g8
I209
sg9
I20
sg10
I72
sbsI210
g2
(g3
g4
Ntp640
Rp641
(dp642
g8
I210
sg9
I16
sg10
I76
sbsI211
g2
(g3
g4
Ntp643
Rp644
(dp645
g8
I211
sg9
I0
sg10
I83
sbsI212
g2
(g3
g4
Ntp646
Rp647
(dp648
g8
I212
sg9
I0
sg10
I72
sbsI213
g2
(g3
g4
Ntp649
Rp650
(dp651
g8
I213
sg9
I0
sg10
I77
sbsI214
g2
(g3
g4
Ntp652
Rp653
(dp654
g8
I214
sg9
I16
sg10
I64
sbsI215
g2
(g3
g4
Ntp655
Rp656
(dp657
g8
I215
sg9
I16
sg10
I71
sbsI216
g2
(g3
g4
Ntp658
Rp659
(dp660
g8
I216
sg9
I12
sg10
I78
sbsI217
g2
(g3
g4
Ntp661
Rp662
(dp663
g8
I217
sg9
I12
sg10
I80
sbsI218
g2
(g3
g4
Ntp664
Rp665
(dp666
g8
I218
sg9
I16
sg10
I81
sbsI219
g2
(g3
g4
Ntp667
Rp668
(dp669
g8
I219
sg9
I8
sg10
I60
sbsI220
g2
(g3
g4
Ntp670
Rp671
(dp672
g8
I220
sg9
I20
sg10
I64
sbsI221
g2
(g3
g4
Ntp673
Rp674
(dp675
g8
I221
sg9
I20
sg10
I74
sbsI222
g2
(g3
g4
Ntp676
Rp677
(dp678
g8
I222
sg9
I8
sg10
I59
sbsI223
g2
(g3
g4
Ntp679
Rp680
(dp681
g8
I223
sg9
I20
sg10
I67
sbsI224
g2
(g3
g4
Ntp682
Rp683
(dp684
g8
I224
sg9
I20
sg10
I79
sbsI225
g2
(g3
g4
Ntp685
Rp686
(dp687
g8
I225
sg9
I10
sg10
I65
sbsI226
g2
(g3
g4
Ntp688
Rp689
(dp690
g8
I226
sg9
I2
sg10
I84
sbsI227
g2
(g3
g4
Ntp691
Rp692
(dp693
g8
I227
sg9
I0
sg10
I70
sbsI228
g2
(g3
g4
Ntp694
Rp695
(dp696
g8
I228
sg9
I6
sg10
I60
sbsI229
g2
(g3
g4
Ntp697
Rp698
(dp699
g8
I229
sg9
I24
sg10
I67
sbsI230
g2
(g3
g4
Ntp700
Rp701
(dp702
g8
I230
sg9
I0
sg10
I60
sbsI231
g2
(g3
g4
Ntp703
Rp704
(dp705
g8
I231
sg9
I0
sg10
I65
sbsI232
g2
(g3
g4
Ntp706
Rp707
(dp708
g8
I232
sg9
I0
sg10
I68
sbsI233
g2
(g3
g4
Ntp709
Rp710
(dp711
g8
I233
sg9
I0
sg10
I57
sbsI234
g2
(g3
g4
Ntp712
Rp713
(dp714
g8
I234
sg9
I0
sg10
I55
sbsI235
g2
(g3
g4
Ntp715
Rp716
(dp717
g8
I235
sg9
I0
sg10
I75
sbsI236
g2
(g3
g4
Ntp718
Rp719
(dp720
g8
I236
sg9
I0
sg10
I88
sbsI237
g2
(g3
g4
Ntp721
Rp722
(dp723
g8
I237
sg9
I3
sg10
I80
sbsI238
g2
(g3
g4
Ntp724
Rp725
(dp726
g8
I238
sg9
I0
sg10
I80
sbsI239
g2
(g3
g4
Ntp727
Rp728
(dp729
g8
I239
sg9
I3
sg10
I85
sbsI240
g2
(g3
g4
Ntp730
Rp731
(dp732
g8
I240
sg9
I3
sg10
I63
sbsI241
g2
(g3
g4
Ntp733
Rp734
(dp735
g8
I241
sg9
I1
sg10
I82
sbsI242
g2
(g3
g4
Ntp736
Rp737
(dp738
g8
I242
sg9
I5
sg10
I81
sbsI243
g2
(g3
g4
Ntp739
Rp740
(dp741
g8
I243
sg9
I4
sg10
I58
sbsI244
g2
(g3
g4
Ntp742
Rp743
(dp744
g8
I244
sg9
I12
sg10
I60
sbsI245
g2
(g3
g4
Ntp745
Rp746
(dp747
g8
I245
sg9
I12
sg10
I77
sbsI246
g2
(g3
g4
Ntp748
Rp749
(dp750
g8
I246
sg9
I10
sg10
I64
sbsI247
g2
(g3
g4
Ntp751
Rp752
(dp753
g8
I247
sg9
I10
sg10
I78
sbsI248
g2
(g3
g4
Ntp754
Rp755
(dp756
g8
I248
sg9
I6
sg10
I75
sbsI249
g2
(g3
g4
Ntp757
Rp758
(dp759
g8
I249
sg9
I0
sg10
I63
sbsI250
g2
(g3
g4
Ntp760
Rp761
(dp762
g8
I250
sg9
I10
sg10
I76
sbsI251
g2
(g3
g4
Ntp763
Rp764
(dp765
g8
I251
sg9
I10
sg10
I81
sbsI252
g2
(g3
g4
Ntp766
Rp767
(dp768
g8
I252
sg9
I3
sg10
I86
sbsI253
g2
(g3
g4
Ntp769
Rp770
(dp771
g8
I253
sg9
I2
sg10
I55
sbsI254
g2
(g3
g4
Ntp772
Rp773
(dp774
g8
I254
sg9
I10
sg10
I73
sbsI255
g2
(g3
g4
Ntp775
Rp776
(dp777
g8
I255
sg9
I6
sg10
I68
sbsI256
g2
(g3
g4
Ntp778
Rp779
(dp780
g8
I256
sg9
I10
sg10
I83
sbsI257
g2
(g3
g4
Ntp781
Rp782
(dp783
g8
I257
sg9
I2
sg10
I58
sbsI258
g2
(g3
g4
Ntp784
Rp785
(dp786
g8
I258
sg9
I10
sg10
I77
sbsI259
g2
(g3
g4
Ntp787
Rp788
(dp789
g8
I259
sg9
I6
sg10
I61
sbsI260
g2
(g3
g4
Ntp790
Rp791
(dp792
g8
I260
sg9
I10
sg10
I68
sbsI261
g2
(g3
g4
Ntp793
Rp794
(dp795
g8
I261
sg9
I2
sg10
I56
sbsI262
g2
(g3
g4
Ntp796
Rp797
(dp798
g8
I262
sg9
I10
sg10
I59
sbsI263
g2
(g3
g4
Ntp799
Rp800
(dp801
g8
I263
sg9
I6
sg10
I57
sbsI264
g2
(g3
g4
Ntp802
Rp803
(dp804
g8
I264
sg9
I8
sg10
I75
sbsI265
g2
(g3
g4
Ntp805
Rp806
(dp807
g8
I265
sg9
I8
sg10
I68
sbsI266
g2
(g3
g4
Ntp808
Rp809
(dp810
g8
I266
sg9
I18
sg10
I62
sbsI267
g2
(g3
g4
Ntp811
Rp812
(dp813
g8
I267
sg9
I18
sg10
I72
sbsI268
g2
(g3
g4
Ntp814
Rp815
(dp816
g8
I268
sg9
I14
sg10
I69
sbsI269
g2
(g3
g4
Ntp817
Rp818
(dp819
g8
I269
sg9
I14
sg10
I79
sbsI270
g2
(g3
g4
Ntp820
Rp821
(dp822
g8
I270
sg9
I16
sg10
I72
sbsI271
g2
(g3
g4
Ntp823
Rp824
(dp825
g8
I271
sg9
I16
sg10
I59
sbsI272
g2
(g3
g4
Ntp826
Rp827
(dp828
g8
I272
sg9
I24
sg10
I66
sbsI273
g2
(g3
g4
Ntp829
Rp830
(dp831
g8
I273
sg9
I24
sg10
I64
sbsI274
g2
(g3
g4
Ntp832
Rp833
(dp834
g8
I274
sg9
I32
sg10
I67
sbsI275
g2
(g3
g4
Ntp835
Rp836
(dp837
g8
I275
sg9
I18
sg10
I74
sbsI276
g2
(g3
g4
Ntp838
Rp839
(dp840
g8
I276
sg9
I24
sg10
I83
sbsI277
g2
(g3
g4
Ntp841
Rp842
(dp843
g8
I277
sg9
I16
sg10
I66
sbsI278
g2
(g3
g4
Ntp844
Rp845
(dp846
g8
I278
sg9
I14
sg10
I66
sbsI279
g2
(g3
g4
Ntp847
Rp848
(dp849
g8
I279
sg9
I20
sg10
I71
sbsI280
g2
(g3
g4
Ntp850
Rp851
(dp852
g8
I280
sg9
I32
sg10
I57
sbsI281
g2
(g3
g4
Ntp853
Rp854
(dp855
g8
I281
sg9
I32
sg10
I66
sbsI282
g2
(g3
g4
Ntp856
Rp857
(dp858
g8
I282
sg9
I20
sg10
I62
sbsI283
g2
(g3
g4
Ntp859
Rp860
(dp861
g8
I283
sg9
I10
sg10
I60
sbsI284
g2
(g3
g4
Ntp862
Rp863
(dp864
g8
I284
sg9
I32
sg10
I76
sbsI285
g2
(g3
g4
Ntp865
Rp866
(dp867
g8
I285
sg9
I8
sg10
I63
sbsI286
g2
(g3
g4
Ntp868
Rp869
(dp870
g8
I286
sg9
I12
sg10
I84
sbsI287
g2
(g3
g4
Ntp871
Rp872
(dp873
g8
I287
sg9
I8
sg10
I57
sbsI288
g2
(g3
g4
Ntp874
Rp875
(dp876
g8
I288
sg9
I16
sg10
I78
sbsI289
g2
(g3
g4
Ntp877
Rp878
(dp879
g8
I289
sg9
I24
sg10
I76
sbsI290
g2
(g3
g4
Ntp880
Rp881
(dp882
g8
I290
sg9
I20
sg10
I78
sbsI291
g2
(g3
g4
Ntp883
Rp884
(dp885
g8
I291
sg9
I24
sg10
I78
sbsI292
g2
(g3
g4
Ntp886
Rp887
(dp888
g8
I292
sg9
I8
sg10
I88
sbsI293
g2
(g3
g4
Ntp889
Rp890
(dp891
g8
I293
sg9
I14
sg10
I78
sbsI294
g2
(g3
g4
Ntp892
Rp893
(dp894
g8
I294
sg9
I16
sg10
I70
sbsI295
g2
(g3
g4
Ntp895
Rp896
(dp897
g8
I295
sg9
I28
sg10
I74
sbsI296
g2
(g3
g4
Ntp898
Rp899
(dp900
g8
I296
sg9
I12
sg10
I59
sbsI297
g2
(g3
g4
Ntp901
Rp902
(dp903
g8
I297
sg9
I4
sg10
I55
sbsI298
g2
(g3
g4
Ntp904
Rp905
(dp906
g8
I298
sg9
I16
sg10
I84
sbsI299
g2
(g3
g4
Ntp907
Rp908
(dp909
g8
I299
sg9
I20
sg10
I76
sbsI300
g2
(g3
g4
Ntp910
Rp911
(dp912
g8
I300
sg9
I16
sg10
I83
sbsI301
g2
(g3
g4
Ntp913
Rp914
(dp915
g8
I301
sg9
I6
sg10
I59
sbsI302
g2
(g3
g4
Ntp916
Rp917
(dp918
g8
I302
sg9
I16
sg10
I73
sbsI303
g2
(g3
g4
Ntp919
Rp920
(dp921
g8
I303
sg9
I3
sg10
I82
sbsI304
g2
(g3
g4
Ntp922
Rp923
(dp924
g8
I304
sg9
I3
sg10
I59
sbsI305
g2
(g3
g4
Ntp925
Rp926
(dp927
g8
I305
sg9
I18
sg10
I67
sbsI306
g2
(g3
g4
Ntp928
Rp929
(dp930
g8
I306
sg9
I18
sg10
I69
sbsI307
g2
(g3
g4
Ntp931
Rp932
(dp933
g8
I307
sg9
I14
sg10
I67
sbsI308
g2
(g3
g4
Ntp934
Rp935
(dp936
g8
I308
sg9
I14
sg10
I74
sbsI309
g2
(g3
g4
Ntp937
Rp938
(dp939
g8
I309
sg9
I32
sg10
I72
sbsI310
g2
(g3
g4
Ntp940
Rp941
(dp942
g8
I310
sg9
I20
sg10
I81
sbsI311
g2
(g3
g4
Ntp943
Rp944
(dp945
g8
I311
sg9
I24
sg10
I60
sbsI312
g2
(g3
g4
Ntp946
Rp947
(dp948
g8
I312
sg9
I20
sg10
I60
sbsI313
g2
(g3
g4
Ntp949
Rp950
(dp951
g8
I313
sg9
I28
sg10
I64
sbssS'tuples'
p952
c__builtin__
set
p953
((lp954
(I59
I0
tp955
a(I66
I16
tp956
a(I64
I0
tp957
a(I62
I2
tp958
a(I71
I16
tp959
a(I66
I10
tp960
a(I73
I10
tp961
a(I74
I1
tp962
a(I70
I12
tp963
a(I74
I28
tp964
a(I81
I4
tp965
a(I80
I12
tp966
a(I77
I1
tp967
a(I82
I3
tp968
a(I60
I24
tp969
a(I79
I2
tp970
a(I84
I2
tp971
a(I80
I4
tp972
a(I62
I8
tp973
a(I61
I0
tp974
a(I60
I8
tp975
a(I67
I8
tp976
a(I66
I0
tp977
a(I65
I8
tp978
a(I72
I8
tp979
a(I68
I3
tp980
a(I62
I18
tp981
a(I69
I2
tp982
a(I75
I6
tp983
a(I74
I2
tp984
a(I61
I6
tp985
a(I71
I3
tp986
a(I76
I1
tp987
a(I57
I4
tp988
a(I64
I20
tp989
a(I71
I12
tp990
a(I78
I4
tp991
a(I77
I4
tp992
a(I-1
I-1
tp993
a(I83
I4
tp994
a(I82
I4
tp995
a(I55
I2
tp996
a(I79
I1
tp997
a(I60
I2
tp998
a(I59
I10
tp999
a(I84
I12
tp1000
a(I65
I6
tp1001
a(I64
I10
tp1002
a(I66
I5
tp1003
a(I63
I0
tp1004
a(I62
I24
tp1005
a(I69
I8
tp1006
a(I68
I0
tp1007
a(I67
I24
tp1008
a(I74
I8
tp1009
a(I73
I0
tp1010
a(I72
I24
tp1011
a(I79
I16
tp1012
a(I71
I6
tp1013
a(I69
I18
tp1014
a(I76
I6
tp1015
a(I74
I18
tp1016
a(I81
I2
tp1017
a(I78
I1
tp1018
a(I60
I20
tp1019
a(I59
I4
tp1020
a(I83
I3
tp1021
a(I65
I28
tp1022
a(I64
I4
tp1023
a(I79
I4
tp1024
a(I84
I4
tp1025
a(I65
I1
tp1026
a(I62
I6
tp1027
a(I86
I3
tp1028
a(I68
I10
tp1029
a(I67
I2
tp1030
a(I66
I6
tp1031
a(I72
I2
tp1032
a(I72
I32
tp1033
a(I73
I3
tp1034
a(I70
I0
tp1035
a(I69
I24
tp1036
a(I75
I0
tp1037
a(I74
I24
tp1038
a(I73
I16
tp1039
a(I80
I0
tp1040
a(I76
I11
tp1041
a(I66
I24
tp1042
a(I57
I2
tp1043
a(I79
I14
tp1044
a(I78
I2
tp1045
a(I77
I10
tp1046
a(I59
I3
tp1047
a(I64
I1
tp1048
a(I62
I12
tp1049
a(I60
I4
tp1050
a(I67
I12
tp1051
a(I71
I24
tp1052
a(I65
I12
tp1053
a(I72
I12
tp1054
a(I62
I3
tp1055
a(I67
I1
tp1056
a(I66
I32
tp1057
a(I69
I14
tp1058
a(I67
I18
tp1059
a(I74
I14
tp1060
a(I72
I18
tp1061
a(I-2
I-1
tp1062
a(I76
I32
tp1063
a(I57
I8
tp1064
a(I71
I8
tp1065
a(I78
I8
tp1066
a(I77
I0
tp1067
a(I76
I8
tp1068
a(I83
I8
tp1069
a(I81
I8
tp1070
a(I88
I8
tp1071
a(I84
I3
tp1072
a(I55
I1
tp1073
a(I85
I2
tp1074
a(I63
I6
tp1075
a(I66
I1
tp1076
a(I71
I20
tp1077
a(I68
I12
tp1078
a(I67
I28
tp1079
a(I66
I12
tp1080
a(I73
I4
tp1081
a(I72
I28
tp1082
a(I79
I20
tp1083
a(I69
I1
tp1084
a(I74
I3
tp1085
a(I71
I2
tp1086
a(I76
I2
tp1087
a(I81
I6
tp1088
a(I77
I3
tp1089
a(I64
I24
tp1090
a(I79
I0
tp1091
a(I60
I3
tp1092
a(I76
I24
tp1093
a(I60
I10
tp1094
a(I62
I10
tp1095
a(I61
I2
tp1096
a(I78
I20
tp1097
a(I67
I6
tp1098
a(I66
I2
tp1099
a(I65
I10
tp1100
a(I72
I6
tp1101
a(I76
I20
tp1102
a(I68
I1
tp1103
a(I70
I4
tp1104
a(I69
I4
tp1105
a(I84
I16
tp1106
a(I75
I4
tp1107
a(I74
I4
tp1108
a(I71
I1
tp1109
a(I85
I3
tp1110
a(I76
I16
tp1111
a(I57
I6
tp1112
a(I81
I1
tp1113
a(I79
I10
tp1114
a(I78
I6
tp1115
a(I77
I6
tp1116
a(I83
I2
tp1117
a(I82
I6
tp1118
a(I55
I0
tp1119
a(I80
I6
tp1120
a(I60
I0
tp1121
a(I59
I8
tp1122
a(I74
I32
tp1123
a(I65
I0
tp1124
a(I64
I8
tp1125
a(I81
I16
tp1126
a(I80
I1
tp1127
a(I72
I3
tp1128
a(I69
I10
tp1129
a(I68
I6
tp1130
a(I74
I10
tp1131
a(I73
I2
tp1132
a(I70
I1
tp1133
a(I75
I3
tp1134
a(I64
I16
tp1135
a(I71
I4
tp1136
a(I78
I12
tp1137
a(I69
I20
tp1138
a(I76
I4
tp1139
a(I83
I12
tp1140
a(I57
I1
tp1141
a(I81
I12
tp1142
a(I78
I3
tp1143
a(I59
I2
tp1144
a(I83
I1
tp1145
a(I64
I2
tp1146
a(I74
I20
tp1147
a(I65
I3
tp1148
a(I63
I8
tp1149
a(I62
I0
tp1150
a(I61
I8
tp1151
a(I68
I8
tp1152
a(I67
I0
tp1153
a(I66
I8
tp1154
a(I73
I8
tp1155
a(I72
I0
tp1156
a(I78
I24
tp1157
a(I80
I3
tp1158
a(I70
I2
tp1159
a(I83
I16
tp1160
a(I79
I24
tp1161
a(I82
I1
tp1162
a(I64
I28
tp1163
a(I79
I12
tp1164
a(I83
I24
tp1165
a(I77
I12
tp1166
a(I59
I1
tp1167
a(I61
I1
tp1168
a(I85
I1
tp1169
a(I67
I10
tp1170
a(I60
I16
tp1171
a(I72
I10
tp1172
a(I63
I4
tp1173
a(I57
I32
tp1174
a(I62
I16
tp1175
a(I69
I0
tp1176
a(I67
I16
tp1177
a(I74
I0
tp1178
a(I73
I24
tp1179
a(I72
I16
tp1180
a(I81
I20
tp1181
a(I76
I3
tp1182
a(I81
I5
tp1183
a(I78
I10
tp1184
a(I77
I2
tp1185
a(I83
I6
tp1186
a(I82
I2
tp1187
a(I81
I10
tp1188
a(I79
I3
tp1189
a(I63
I3
tp1190
a(I59
I12
tp1191
a(I65
I4
tp1192
a(I64
I12
tp1193
a(I86
I4
tp1194
a(I85
I4
tp1195
a(I66
I3
tp1196
a(I77
I16
tp1197
a(I63
I2
tp1198
a(I68
I2
tp1199
a(I66
I14
tp1200
a(I73
I6
tp1201
a(I69
I3
tp1202
a(I71
I0
tp1203
a(I70
I8
tp1204
a(I69
I16
tp1205
a(I76
I0
tp1206
a(I75
I8
tp1207
a(I74
I16
tp1208
a(I81
I0
tp1209
a(I80
I8
tp1210
a(I59
I6
tp1211
a(I58
I2
tp1212
a(I64
I6
tp1213
a(I79
I6
tp1214
a(I70
I16
tp1215
a(I60
I1
tp1216
a(I84
I6
tp1217
a(I62
I4
tp1218
a(I61
I4
tp1219
a(I60
I12
tp1220
a(I67
I4
tp1221
a(I66
I4
tp1222
a(I73
I12
tp1223
a(I72
I4
tp1224
a(I55
I4
tp1225
a(I76
I12
tp1226
a(I73
I1
tp1227
a(I70
I6
tp1228
a(I69
I6
tp1229
a(I75
I2
tp1230
a(I74
I6
tp1231
a(I80
I2
tp1232
a(I59
I16
tp1233
a(I57
I0
tp1234
a(I81
I3
tp1235
a(I79
I8
tp1236
a(I78
I0
tp1237
a(I77
I8
tp1238
a(I84
I8
tp1239
a(I83
I0
tp1240
a(I82
I8
tp1241
a(I64
I3
tp1242
a(I88
I0
tp1243
a(I60
I6
tp1244
a(I67
I14
tp1245
a(I78
I16
tp1246
a(I65
I2
tp1247
a(I62
I1
tp1248
a(I86
I2
tp1249
a(I67
I3
tp1250
a(I72
I1
tp1251
a(I62
I20
tp1252
a(I69
I12
tp1253
a(I68
I4
tp1254
a(I67
I20
tp1255
a(I74
I12
tp1256
a(I72
I20
tp1257
a(I70
I3
tp1258
a(I67
I32
tp1259
a(I75
I1
tp1260
a(I56
I2
tp1261
a(I71
I10
tp1262
a(I78
I14
tp1263
a(I69
I32
tp1264
a(I76
I10
tp1265
a(I83
I10
tp1266
a(I57
I3
tp1267
a(I58
I4
tp1268
atp1269
Rp1270
sS'tup2e'
p1271
(dp1272
(I66
I16
tp1273
g842
s(I64
I0
tp1274
g572
s(I66
I10
tp1275
g623
s(I70
I12
tp1276
g476
s(I81
I4
tp1277
g194
s(I80
I12
tp1278
g662
s(I82
I3
tp1279
g920
s(I84
I2
tp1280
g689
s(I62
I8
tp1281
g485
s(I61
I0
tp1282
g593
s(I60
I8
tp1283
g668
s(I72
I8
tp1284
g437
s(I62
I18
tp1285
g809
s(I75
I6
tp1286
g755
s(I74
I2
tp1287
g20
s(I76
I1
tp1288
g110
s(I64
I20
tp1289
g671
s(I79
I20
tp1290
g683
s(I78
I4
tp1291
g215
s(I77
I4
tp1292
g302
s(I-2
I-1
tp1293
g6
s(I55
I2
tp1294
g770
s(I79
I1
tp1295
g260
s(I59
I1
tp1296
g584
s(I65
I6
tp1297
g434
s(I64
I10
tp1298
g749
s(I66
I5
tp1299
g596
s(I69
I8
tp1300
g206
s(I68
I0
tp1301
g707
s(I67
I24
tp1302
g698
s(I71
I6
tp1303
g200
s(I69
I18
tp1304
g929
s(I81
I2
tp1305
g41
s(I60
I20
tp1306
g947
s(I59
I4
tp1307
g275
s(I83
I3
tp1308
g287
s(I85
I1
tp1309
g587
s(I84
I4
tp1310
g599
s(I62
I6
tp1311
g344
s(I61
I6
tp1312
g788
s(I72
I2
tp1313
g56
s(I73
I3
tp1314
g173
s(I78
I24
tp1315
g884
s(I75
I0
tp1316
g716
s(I74
I24
tp1317
g470
s(I73
I16
tp1318
g917
s(I76
I11
tp1319
g281
s(I79
I14
tp1320
g818
s(I78
I2
tp1321
g47
s(I77
I10
tp1322
g785
s(I64
I1
tp1323
g80
s(I67
I12
tp1324
g398
s(I65
I12
tp1325
g524
s(I67
I1
tp1326
g116
s(I69
I14
tp1327
g815
s(I67
I18
tp1328
g926
s(I57
I8
tp1329
g872
s(I71
I8
tp1330
g272
s(I70
I16
tp1331
g893
s(I84
I16
tp1332
g905
s(I83
I8
tp1333
g518
s(I81
I8
tp1334
g119
s(I84
I3
tp1335
g290
s(I85
I2
tp1336
g218
s(I73
I4
tp1337
g146
s(I72
I28
tp1338
g608
s(I74
I3
tp1339
g128
s(I76
I2
tp1340
g17
s(I77
I3
tp1341
g308
s(I64
I24
tp1342
g830
s(I79
I0
tp1343
g446
s(I77
I16
tp1344
g512
s(I76
I24
tp1345
g878
s(I67
I6
tp1346
g179
s(I66
I2
tp1347
g26
s(I65
I10
tp1348
g686
s(I68
I1
tp1349
g74
s(I70
I4
tp1350
g422
s(I69
I4
tp1351
g143
s(I80
I4
tp1352
g299
s(I57
I6
tp1353
g800
s(I81
I1
tp1354
g266
s(I83
I2
tp1355
g185
s(I82
I6
tp1356
g431
s(I60
I0
tp1357
g701
s(I59
I8
tp1358
g677
s(I74
I32
tp1359
g632
s(I85
I3
tp1360
g728
s(I63
I6
tp1361
g365
s(I74
I10
tp1362
g329
s(I73
I2
tp1363
g23
s(I75
I3
tp1364
g164
s(I78
I12
tp1365
g659
s(I76
I4
tp1366
g68
s(I74
I20
tp1367
g674
s(I78
I3
tp1368
g155
s(I64
I2
tp1369
g101
s(I65
I3
tp1370
g239
s(I68
I8
tp1371
g806
s(I67
I0
tp1372
g377
s(I66
I8
tp1373
g482
s(I70
I2
tp1374
g362
s(I82
I1
tp1375
g734
s(I71
I20
tp1376
g848
s(I84
I12
tp1377
g869
s(I86
I4
tp1378
g221
s(I60
I10
tp1379
g860
s(I72
I10
tp1380
g317
s(I80
I3
tp1381
g722
s(I74
I0
tp1382
g569
s(I73
I24
tp1383
g503
s(I72
I16
tp1384
g821
s(I76
I3
tp1385
g137
s(I78
I10
tp1386
g752
s(I77
I2
tp1387
g326
s(I80
I6
tp1388
g452
s(I79
I3
tp1389
g257
s(I65
I4
tp1390
g236
s(I64
I12
tp1391
g407
s(I66
I3
tp1392
g149
s(I68
I2
tp1393
g83
s(I66
I14
tp1394
g845
s(I69
I3
tp1395
g140
s(I71
I0
tp1396
g563
s(I70
I8
tp1397
g479
s(I69
I16
tp1398
g506
s(I83
I16
tp1399
g911
s(I81
I0
tp1400
g443
s(I80
I8
tp1401
g548
s(I59
I6
tp1402
g914
s(I58
I2
tp1403
g782
s(I60
I1
tp1404
g230
s(I84
I6
tp1405
g614
s(I62
I4
tp1406
g224
s(I61
I4
tp1407
g410
s(I60
I12
tp1408
g743
s(I73
I12
tp1409
g212
s(I72
I4
tp1410
g242
s(I76
I12
tp1411
g401
s(I73
I1
tp1412
g89
s(I75
I2
tp1413
g86
s(I74
I6
tp1414
g65
s(I64
I16
tp1415
g653
s(I79
I8
tp1416
g347
s(I78
I0
tp1417
g488
s(I77
I8
tp1418
g464
s(I76
I16
tp1419
g641
s(I64
I3
tp1420
g167
s(I88
I0
tp1421
g719
s(I67
I14
tp1422
g932
s(I65
I2
tp1423
g341
s(I67
I3
tp1424
g131
s(I69
I12
tp1425
g395
s(I68
I4
tp1426
g461
s(I67
I20
tp1427
g680
s(I70
I3
tp1428
g161
s(I67
I32
tp1429
g833
s(I56
I2
tp1430
g794
s(I71
I10
tp1431
g353
s(I83
I10
tp1432
g779
s(I57
I3
tp1433
g233
s(I60
I24
tp1434
g944
s(I59
I0
tp1435
g590
s(I62
I2
tp1436
g176
s(I73
I10
tp1437
g773
s(I74
I1
tp1438
g113
s(I78
I20
tp1439
g881
s(I74
I28
tp1440
g896
s(I77
I1
tp1441
g305
s(I79
I2
tp1442
g44
s(I62
I16
tp1443
g536
s(I71
I1
tp1444
g92
s(I67
I8
tp1445
g314
s(I66
I0
tp1446
g371
s(I65
I8
tp1447
g620
s(I68
I3
tp1448
g170
s(I69
I2
tp1449
g29
s(I71
I3
tp1450
g122
s(I57
I4
tp1451
g542
s(I71
I12
tp1452
g527
s(I83
I4
tp1453
g293
s(I82
I4
tp1454
g425
s(I81
I20
tp1455
g941
s(I60
I2
tp1456
g383
s(I59
I10
tp1457
g797
s(I63
I0
tp1458
g758
s(I62
I24
tp1459
g467
s(I74
I8
tp1460
g197
s(I73
I0
tp1461
g566
s(I72
I24
tp1462
g611
s(I76
I6
tp1463
g209
s(I74
I18
tp1464
g836
s(I78
I1
tp1465
g107
s(I65
I28
tp1466
g521
s(I64
I4
tp1467
g71
s(I79
I4
tp1468
g284
s(I65
I1
tp1469
g245
s(I68
I10
tp1470
g791
s(I67
I2
tp1471
g35
s(I66
I6
tp1472
g404
s(I70
I0
tp1473
g692
s(I69
I24
tp1474
g545
s(I83
I24
tp1475
g839
s(I66
I32
tp1476
g854
s(I80
I0
tp1477
g725
s(I57
I2
tp1478
g602
s(I59
I3
tp1479
g923
s(I62
I12
tp1480
g392
s(I60
I4
tp1481
g251
s(I72
I12
tp1482
g320
s(I62
I3
tp1483
g227
s(I74
I14
tp1484
g935
s(I72
I18
tp1485
g812
s(I-1
I-1
tp1486
g14
s(I79
I16
tp1487
g509
s(I78
I8
tp1488
g296
s(I77
I0
tp1489
g650
s(I76
I8
tp1490
g104
s(I88
I8
tp1491
g887
s(I55
I1
tp1492
g581
s(I72
I3
tp1493
g158
s(I66
I1
tp1494
g77
s(I68
I12
tp1495
g458
s(I67
I28
tp1496
g473
s(I66
I12
tp1497
g494
s(I69
I1
tp1498
g95
s(I71
I2
tp1499
g32
s(I81
I6
tp1500
g188
s(I60
I16
tp1501
g635
s(I72
I32
tp1502
g938
s(I71
I24
tp1503
g629
s(I60
I3
tp1504
g248
s(I62
I10
tp1505
g419
s(I61
I2
tp1506
g386
s(I72
I6
tp1507
g350
s(I86
I3
tp1508
g767
s(I75
I4
tp1509
g323
s(I74
I4
tp1510
g50
s(I79
I10
tp1511
g413
s(I78
I6
tp1512
g62
s(I77
I6
tp1513
g59
s(I55
I0
tp1514
g713
s(I66
I24
tp1515
g827
s(I65
I0
tp1516
g704
s(I64
I8
tp1517
g278
s(I71
I4
tp1518
g38
s(I69
I10
tp1519
g359
s(I68
I6
tp1520
g776
s(I70
I1
tp1521
g254
s(I80
I1
tp1522
g191
s(I69
I20
tp1523
g500
s(I83
I12
tp1524
g533
s(I57
I1
tp1525
g578
s(I81
I12
tp1526
g455
s(I59
I2
tp1527
g440
s(I83
I1
tp1528
g269
s(I63
I8
tp1529
g866
s(I62
I0
tp1530
g575
s(I61
I8
tp1531
g539
s(I76
I32
tp1532
g863
s(I73
I8
tp1533
g497
s(I72
I0
tp1534
g647
s(I64
I28
tp1535
g950
s(I79
I12
tp1536
g203
s(I77
I12
tp1537
g746
s(I76
I20
tp1538
g908
s(I67
I10
tp1539
g332
s(I72
I1
tp1540
g125
s(I57
I32
tp1541
g851
s(I69
I0
tp1542
g374
s(I67
I16
tp1543
g515
s(I81
I5
tp1544
g737
s(I83
I6
tp1545
g416
s(I82
I2
tp1546
g428
s(I81
I10
tp1547
g764
s(I63
I3
tp1548
g731
s(I59
I12
tp1549
g899
s(I61
I1
tp1550
g554
s(I85
I4
tp1551
g557
s(I63
I2
tp1552
g368
s(I73
I6
tp1553
g335
s(I79
I24
tp1554
g617
s(I78
I16
tp1555
g875
s(I76
I0
tp1556
g491
s(I75
I8
tp1557
g803
s(I74
I16
tp1558
g626
s(I64
I6
tp1559
g356
s(I79
I6
tp1560
g53
s(I67
I4
tp1561
g134
s(I66
I4
tp1562
g311
s(I55
I4
tp1563
g902
s(I70
I6
tp1564
g449
s(I69
I6
tp1565
g338
s(I80
I2
tp1566
g182
s(I59
I16
tp1567
g824
s(I57
I0
tp1568
g710
s(I81
I3
tp1569
g263
s(I71
I16
tp1570
g656
s(I69
I32
tp1571
g551
s(I84
I8
tp1572
g530
s(I83
I0
tp1573
g644
s(I82
I8
tp1574
g605
s(I81
I16
tp1575
g665
s(I60
I6
tp1576
g695
s(I62
I1
tp1577
g152
s(I86
I2
tp1578
g560
s(I63
I4
tp1579
g389
s(I62
I20
tp1580
g857
s(I74
I12
tp1581
g380
s(I72
I20
tp1582
g638
s(I75
I1
tp1583
g98
s(I78
I14
tp1584
g890
s(I76
I10
tp1585
g761
s(I58
I4
tp1586
g740
ssS'START_EVENT'
p1587
g14
sS'events'
p1588
g953
((lp1589
g899
ag776
ag119
ag932
ag128
ag845
ag131
ag50
ag788
ag122
ag773
ag125
ag779
ag92
ag134
ag701
ag113
ag467
ag854
ag116
ag143
ag629
ag146
ag839
ag149
ag572
ag794
ag107
ag668
ag470
ag155
ag740
ag515
ag605
ag158
ag101
ag560
ag251
ag104
ag947
ag167
ag83
ag902
ag170
ag173
ag851
ag506
ag182
ag638
ag185
ag44
ag176
ag179
ag203
ag188
ag875
ag86
ag509
ag206
ag692
ag758
ag191
ag623
ag80
ag920
ag197
ag581
ag200
ag611
ag209
ag524
ag212
ag944
ag533
ag65
ag272
ag800
ag74
ag749
ag677
ag221
ag746
ag68
ag905
ag59
ag575
ag695
ag62
ag551
ag950
ag230
ag518
ag233
ag38
ag236
ag836
ag239
ag824
ag194
ag803
ag47
ag671
ag245
ag782
ag137
ag614
ag248
ag632
ag41
ag641
ag887
ag254
ag281
ag590
ag35
ag860
ag929
ag791
ag257
ag140
ag260
ag263
ag29
ag602
ag266
ag269
ag545
ag77
ag71
ag536
ag26
ag530
ag923
ag290
ag734
ag686
ag299
ag32
ag14
ag896
ag23
ag833
ag596
ag6
ag719
ag914
ag293
ag521
ag17
ag881
ag20
ag827
ag584
ag884
ag818
ag680
ag626
ag308
ag743
ag599
ag329
ag704
ag338
ag548
ag317
ag314
ag278
ag311
ag857
ag764
ag326
ag215
ag797
ag323
ag656
ag527
ag320
ag755
ag152
ag617
ag347
ag911
ag710
ag350
ag554
ag275
ag377
ag332
ag218
ag335
ag725
ag356
ag110
ag812
ag341
ag662
ag344
ag842
ag650
ag653
ag353
ag374
ag608
ag389
ag866
ag368
ag539
ag893
ag359
ag698
ag380
ag941
ag674
ag371
ag761
ag362
ag224
ag365
ag578
ag848
ag392
ag161
ag917
ag413
ag869
ag767
ag404
ag284
ag383
ag683
ag386
ag938
ag227
ag395
ag716
ag815
ag707
ag398
ag164
ag401
ag566
ag635
ag416
ag287
ag407
ag722
ag410
ag587
ag785
ag419
ag665
ag935
ag440
ag770
ag542
ag620
ag443
ag593
ag713
ag422
ag557
ag302
ag431
ag452
ag53
ag425
ag830
ag821
ag428
ag95
ag806
ag461
ag647
ag752
ag434
ag731
ag473
ag437
ag926
ag446
ag569
ag56
ag449
ag728
ag872
ag512
ag458
ag98
ag455
ag464
ag296
ag878
ag476
ag659
ag890
ag500
ag644
ag479
ag494
ag563
ag488
ag737
ag863
ag491
ag305
ag482
ag689
ag485
ag809
ag242
ag503
ag908
ag497
ag89
atp1590
Rp1591
s.