(dp0
S'ashover_simple_chords_25.mid'
p1
(dp2
S'segments'
p3
(lp4
(I0
I12
tp5
a(I12
I23
tp6
a(I23
I43
tp7
a(I43
I55
tp8
a(I55
I66
tp9
a(I66
I86
tp10
a(I86
I101
tp11
a(I101
I108
tp12
a(I108
I-1
tp13
assS'ashover_simple_chords_8.mid'
p14
(dp15
g3
(lp16
(I0
I11
tp17
a(I11
I12
tp18
a(I12
I22
tp19
a(I22
I33
tp20
a(I33
I37
tp21
a(I37
I42
tp22
a(I42
I53
tp23
a(I53
I54
tp24
a(I54
I64
tp25
a(I64
I75
tp26
a(I75
I79
tp27
a(I79
I84
tp28
a(I84
I96
tp29
a(I96
I108
tp30
a(I108
I120
tp31
a(I120
I124
tp32
a(I124
I-1
tp33
assS'ashover_simple_chords_36.mid'
p34
(dp35
g3
(lp36
(I0
I8
tp37
a(I8
I20
tp38
a(I20
I32
tp39
a(I32
I44
tp40
a(I44
I45
tp41
a(I45
I52
tp42
a(I52
I76
tp43
a(I76
I88
tp44
a(I88
I-1
tp45
assS'ashover_simple_chords_14.mid'
p46
(dp47
g3
(lp48
(I0
I10
tp49
a(I10
I21
tp50
a(I21
I32
tp51
a(I32
I43
tp52
a(I43
I54
tp53
a(I54
I65
tp54
a(I65
I76
tp55
a(I76
I87
tp56
a(I87
I91
tp57
a(I91
I98
tp58
a(I98
I102
tp59
a(I102
I109
tp60
a(I109
I113
tp61
a(I113
I120
tp62
a(I120
I131
tp63
a(I131
I-1
tp64
assS'ashover_simple_chords_30.mid'
p65
(dp66
g3
(lp67
(I0
I12
tp68
a(I12
I17
tp69
a(I17
I23
tp70
a(I23
I35
tp71
a(I35
I40
tp72
a(I40
I46
tp73
a(I46
I58
tp74
a(I58
I63
tp75
a(I63
I69
tp76
a(I69
I81
tp77
a(I81
I86
tp78
a(I86
I92
tp79
a(I92
I114
tp80
a(I114
I130
tp81
a(I130
I-1
tp82
assS'ashover_simple_chords_38.mid'
p83
(dp84
g3
(lp85
(I0
I9
tp86
a(I9
I15
tp87
a(I15
I20
tp88
a(I20
I28
tp89
a(I28
I54
tp90
a(I54
I58
tp91
a(I58
I73
tp92
a(I73
I83
tp93
a(I83
I98
tp94
a(I98
I108
tp95
a(I108
I109
tp96
a(I109
I117
tp97
a(I117
I130
tp98
a(I130
I131
tp99
a(I131
I139
tp100
a(I139
I-1
tp101
assS'ashover_simple_chords_39.mid'
p102
(dp103
g3
(lp104
(I0
I29
tp105
a(I29
I66
tp106
a(I66
I95
tp107
a(I95
I-1
tp108
assS'ashover_simple_chords_26.mid'
p109
(dp110
g3
(lp111
(I0
I6
tp112
a(I6
I10
tp113
a(I10
I27
tp114
a(I27
I31
tp115
a(I31
I42
tp116
a(I42
I46
tp117
a(I46
I50
tp118
a(I50
I67
tp119
a(I67
I71
tp120
a(I71
I82
tp121
a(I82
I94
tp122
a(I94
I105
tp123
a(I105
I111
tp124
a(I111
I115
tp125
a(I115
I-1
tp126
assS'ashover_simple_chords_45.mid'
p127
(dp128
g3
(lp129
(I0
I47
tp130
a(I47
I94
tp131
a(I94
I105
tp132
a(I105
I115
tp133
a(I115
I137
tp134
a(I137
I147
tp135
a(I147
I157
tp136
a(I157
I-1
tp137
assS'ashover_simple_chords_24.mid'
p138
(dp139
g3
(lp140
(I0
I5
tp141
a(I5
I9
tp142
a(I9
I32
tp143
a(I32
I33
tp144
a(I33
I37
tp145
a(I37
I41
tp146
a(I41
I64
tp147
a(I64
I79
tp148
a(I79
I95
tp149
a(I95
I110
tp150
a(I110
I126
tp151
a(I126
I141
tp152
a(I141
I157
tp153
a(I157
I172
tp154
a(I172
I-1
tp155
assS'ashover_simple_chords_13.mid'
p156
(dp157
g3
(lp158
(I0
I34
tp159
a(I34
I41
tp160
a(I41
I42
tp161
a(I42
I64
tp162
a(I64
I133
tp163
a(I133
I134
tp164
a(I134
I167
tp165
a(I167
I174
tp166
a(I174
I175
tp167
a(I175
I197
tp168
a(I197
I-1
tp169
assS'ashover_simple_chords_12.mid'
p170
(dp171
g3
(lp172
(I0
I17
tp173
a(I17
I47
tp174
a(I47
I60
tp175
a(I60
I112
tp176
a(I112
I118
tp177
a(I118
I119
tp178
a(I119
I171
tp179
a(I171
I-1
tp180
assS'ashover_simple_chords_42.mid'
p181
(dp182
g3
(lp183
(I0
I4
tp184
a(I4
I18
tp185
a(I18
I37
tp186
a(I37
I63
tp187
a(I63
I64
tp188
a(I64
I72
tp189
a(I72
I89
tp190
a(I89
I93
tp191
a(I93
I102
tp192
a(I102
I123
tp193
a(I123
I124
tp194
a(I124
I128
tp195
a(I128
I142
tp196
a(I142
I161
tp197
a(I161
I187
tp198
a(I187
I188
tp199
a(I188
I196
tp200
a(I196
I213
tp201
a(I213
I217
tp202
a(I217
I226
tp203
a(I226
I247
tp204
a(I247
I-1
tp205
assS'ashover_simple_chords_7.mid'
p206
(dp207
g3
(lp208
(I0
I10
tp209
a(I10
I12
tp210
a(I12
I17
tp211
a(I17
I37
tp212
a(I37
I47
tp213
a(I47
I49
tp214
a(I49
I54
tp215
a(I54
I74
tp216
a(I74
I132
tp217
a(I132
I142
tp218
a(I142
I200
tp219
a(I200
I203
tp220
a(I203
I-1
tp221
assS'ashover_simple_chords_15.mid'
p222
(dp223
g3
(lp224
(I0
I8
tp225
a(I8
I10
tp226
a(I10
I31
tp227
a(I31
I33
tp228
a(I33
I53
tp229
a(I53
I55
tp230
a(I55
I57
tp231
a(I57
I59
tp232
a(I59
I67
tp233
a(I67
I78
tp234
a(I78
I80
tp235
a(I80
I92
tp236
a(I92
I99
tp237
a(I99
I101
tp238
a(I101
I122
tp239
a(I122
I124
tp240
a(I124
I144
tp241
a(I144
I146
tp242
a(I146
I148
tp243
a(I148
I150
tp244
a(I150
I158
tp245
a(I158
I169
tp246
a(I169
I171
tp247
a(I171
I183
tp248
a(I183
I185
tp249
a(I185
I187
tp250
a(I187
I-1
tp251
assS'ashover_simple_chords_3.mid'
p252
(dp253
g3
(lp254
(I0
I30
tp255
a(I30
I61
tp256
a(I61
I94
tp257
a(I94
I126
tp258
a(I126
I127
tp259
a(I127
I224
tp260
a(I224
I266
tp261
a(I266
I-1
tp262
assS'ashover_simple_chords_6.mid'
p263
(dp264
g3
(lp265
(I0
I2
tp266
a(I2
I7
tp267
a(I7
I14
tp268
a(I14
I17
tp269
a(I17
I21
tp270
a(I21
I33
tp271
a(I33
I38
tp272
a(I38
I45
tp273
a(I45
I48
tp274
a(I48
I52
tp275
a(I52
I60
tp276
a(I60
I61
tp277
a(I61
I62
tp278
a(I62
I70
tp279
a(I70
I73
tp280
a(I73
I77
tp281
a(I77
I93
tp282
a(I93
I95
tp283
a(I95
I100
tp284
a(I100
I107
tp285
a(I107
I110
tp286
a(I110
I114
tp287
a(I114
I122
tp288
a(I122
I130
tp289
a(I130
I133
tp290
a(I133
I137
tp291
a(I137
I-1
tp292
assS'ashover_simple_chords_27.mid'
p293
(dp294
g3
(lp295
(I0
I3
tp296
a(I3
I8
tp297
a(I8
I13
tp298
a(I13
I18
tp299
a(I18
I40
tp300
a(I40
I41
tp301
a(I41
I43
tp302
a(I43
I48
tp303
a(I48
I53
tp304
a(I53
I58
tp305
a(I58
I80
tp306
a(I80
I81
tp307
a(I81
I125
tp308
a(I125
I129
tp309
a(I129
I134
tp310
a(I134
I139
tp311
a(I139
I144
tp312
a(I144
I-1
tp313
ass.